
./init_task:     file format elf32-littlearm


Disassembly of section .text:

00008000 <_start>:
_start():
/mnt/c/user/privateWorkspace/School/OS/SP/KIV-RTOS/sources/userspace/crt0.s:10
;@ startovaci symbol - vstupni bod z jadra OS do uzivatelskeho programu
;@ v podstate jen ihned zavola nejakou C funkci, nepotrebujeme nic tak kritickeho, abychom to vsechno museli psal v ASM
;@ jen _start vlastne ani neni funkce, takze by tento vstupni bod mel byt psany takto; rovnez je treba se ujistit, ze
;@ je tento symbol relokovany spravne na 0x8000 (tam OS ocekava, ze se nachazi vstupni bod)
_start:
    bl __crt0_run
    8000:	eb000017 	bl	8064 <__crt0_run>

00008004 <_hang>:
_hang():
/mnt/c/user/privateWorkspace/School/OS/SP/KIV-RTOS/sources/userspace/crt0.s:13
    ;@ z funkce __crt0_run by se nemel proces uz vratit, ale kdyby neco, tak se zacyklime
_hang:
    b _hang
    8004:	eafffffe 	b	8004 <_hang>

00008008 <__crt0_init_bss>:
__crt0_init_bss():
/mnt/c/user/privateWorkspace/School/OS/SP/KIV-RTOS/sources/userspace/crt0.c:10

extern unsigned int __bss_start;
extern unsigned int __bss_end;

void __crt0_init_bss()
{
    8008:	e52db004 	push	{fp}		; (str fp, [sp, #-4]!)
    800c:	e28db000 	add	fp, sp, #0
    8010:	e24dd00c 	sub	sp, sp, #12
/mnt/c/user/privateWorkspace/School/OS/SP/KIV-RTOS/sources/userspace/crt0.c:11
    for (unsigned int* cur = &__bss_start; cur < &__bss_end; cur++)
    8014:	e59f3040 	ldr	r3, [pc, #64]	; 805c <__crt0_init_bss+0x54>
    8018:	e50b3008 	str	r3, [fp, #-8]
    801c:	ea000005 	b	8038 <__crt0_init_bss+0x30>
/mnt/c/user/privateWorkspace/School/OS/SP/KIV-RTOS/sources/userspace/crt0.c:12 (discriminator 3)
        *cur = 0;
    8020:	e51b3008 	ldr	r3, [fp, #-8]
    8024:	e3a02000 	mov	r2, #0
    8028:	e5832000 	str	r2, [r3]
/mnt/c/user/privateWorkspace/School/OS/SP/KIV-RTOS/sources/userspace/crt0.c:11 (discriminator 3)
    for (unsigned int* cur = &__bss_start; cur < &__bss_end; cur++)
    802c:	e51b3008 	ldr	r3, [fp, #-8]
    8030:	e2833004 	add	r3, r3, #4
    8034:	e50b3008 	str	r3, [fp, #-8]
/mnt/c/user/privateWorkspace/School/OS/SP/KIV-RTOS/sources/userspace/crt0.c:11 (discriminator 1)
    8038:	e51b3008 	ldr	r3, [fp, #-8]
    803c:	e59f201c 	ldr	r2, [pc, #28]	; 8060 <__crt0_init_bss+0x58>
    8040:	e1530002 	cmp	r3, r2
    8044:	3afffff5 	bcc	8020 <__crt0_init_bss+0x18>
/mnt/c/user/privateWorkspace/School/OS/SP/KIV-RTOS/sources/userspace/crt0.c:13
}
    8048:	e320f000 	nop	{0}
    804c:	e320f000 	nop	{0}
    8050:	e28bd000 	add	sp, fp, #0
    8054:	e49db004 	pop	{fp}		; (ldr fp, [sp], #4)
    8058:	e12fff1e 	bx	lr
    805c:	0000944c 	andeq	r9, r0, ip, asr #8
    8060:	0000945c 	andeq	r9, r0, ip, asr r4

00008064 <__crt0_run>:
__crt0_run():
/mnt/c/user/privateWorkspace/School/OS/SP/KIV-RTOS/sources/userspace/crt0.c:16

void __crt0_run()
{
    8064:	e92d4800 	push	{fp, lr}
    8068:	e28db004 	add	fp, sp, #4
    806c:	e24dd008 	sub	sp, sp, #8
/mnt/c/user/privateWorkspace/School/OS/SP/KIV-RTOS/sources/userspace/crt0.c:18
    // inicializace .bss sekce (vynulovani)
    __crt0_init_bss();
    8070:	ebffffe4 	bl	8008 <__crt0_init_bss>
/mnt/c/user/privateWorkspace/School/OS/SP/KIV-RTOS/sources/userspace/crt0.c:21

    // volani konstruktoru globalnich trid (C++)
    _cpp_startup();
    8074:	eb000040 	bl	817c <_cpp_startup>
/mnt/c/user/privateWorkspace/School/OS/SP/KIV-RTOS/sources/userspace/crt0.c:26

    // volani funkce main
    // nebudeme se zde zabyvat predavanim parametru do funkce main
    // jinak by se mohly predavat napr. namapovane do virtualniho adr. prostoru a odkazem pres zasobnik (kam nam muze OS pushnout co chce)
    int result = main(0, 0);
    8078:	e3a01000 	mov	r1, #0
    807c:	e3a00000 	mov	r0, #0
    8080:	eb000069 	bl	822c <main>
    8084:	e50b0008 	str	r0, [fp, #-8]
/mnt/c/user/privateWorkspace/School/OS/SP/KIV-RTOS/sources/userspace/crt0.c:29

    // volani destruktoru globalnich trid (C++)
    _cpp_shutdown();
    8088:	eb000051 	bl	81d4 <_cpp_shutdown>
/mnt/c/user/privateWorkspace/School/OS/SP/KIV-RTOS/sources/userspace/crt0.c:32

    // volani terminate() syscallu s navratovym kodem funkce main
    asm volatile("mov r0, %0" : : "r" (result));
    808c:	e51b3008 	ldr	r3, [fp, #-8]
    8090:	e1a00003 	mov	r0, r3
/mnt/c/user/privateWorkspace/School/OS/SP/KIV-RTOS/sources/userspace/crt0.c:33
    asm volatile("svc #1");
    8094:	ef000001 	svc	0x00000001
/mnt/c/user/privateWorkspace/School/OS/SP/KIV-RTOS/sources/userspace/crt0.c:34
}
    8098:	e320f000 	nop	{0}
    809c:	e24bd004 	sub	sp, fp, #4
    80a0:	e8bd8800 	pop	{fp, pc}

000080a4 <__cxa_guard_acquire>:
__cxa_guard_acquire():
/mnt/c/user/privateWorkspace/School/OS/SP/KIV-RTOS/sources/userspace/cxxabi.cpp:11
	extern "C" int __cxa_guard_acquire (__guard *);
	extern "C" void __cxa_guard_release (__guard *);
	extern "C" void __cxa_guard_abort (__guard *);

	extern "C" int __cxa_guard_acquire (__guard *g)
	{
    80a4:	e52db004 	push	{fp}		; (str fp, [sp, #-4]!)
    80a8:	e28db000 	add	fp, sp, #0
    80ac:	e24dd00c 	sub	sp, sp, #12
    80b0:	e50b0008 	str	r0, [fp, #-8]
/mnt/c/user/privateWorkspace/School/OS/SP/KIV-RTOS/sources/userspace/cxxabi.cpp:12
		return !*(char *)(g);
    80b4:	e51b3008 	ldr	r3, [fp, #-8]
    80b8:	e5d33000 	ldrb	r3, [r3]
    80bc:	e3530000 	cmp	r3, #0
    80c0:	03a03001 	moveq	r3, #1
    80c4:	13a03000 	movne	r3, #0
    80c8:	e6ef3073 	uxtb	r3, r3
/mnt/c/user/privateWorkspace/School/OS/SP/KIV-RTOS/sources/userspace/cxxabi.cpp:13
	}
    80cc:	e1a00003 	mov	r0, r3
    80d0:	e28bd000 	add	sp, fp, #0
    80d4:	e49db004 	pop	{fp}		; (ldr fp, [sp], #4)
    80d8:	e12fff1e 	bx	lr

000080dc <__cxa_guard_release>:
__cxa_guard_release():
/mnt/c/user/privateWorkspace/School/OS/SP/KIV-RTOS/sources/userspace/cxxabi.cpp:16

	extern "C" void __cxa_guard_release (__guard *g)
	{
    80dc:	e52db004 	push	{fp}		; (str fp, [sp, #-4]!)
    80e0:	e28db000 	add	fp, sp, #0
    80e4:	e24dd00c 	sub	sp, sp, #12
    80e8:	e50b0008 	str	r0, [fp, #-8]
/mnt/c/user/privateWorkspace/School/OS/SP/KIV-RTOS/sources/userspace/cxxabi.cpp:17
		*(char *)g = 1;
    80ec:	e51b3008 	ldr	r3, [fp, #-8]
    80f0:	e3a02001 	mov	r2, #1
    80f4:	e5c32000 	strb	r2, [r3]
/mnt/c/user/privateWorkspace/School/OS/SP/KIV-RTOS/sources/userspace/cxxabi.cpp:18
	}
    80f8:	e320f000 	nop	{0}
    80fc:	e28bd000 	add	sp, fp, #0
    8100:	e49db004 	pop	{fp}		; (ldr fp, [sp], #4)
    8104:	e12fff1e 	bx	lr

00008108 <__cxa_guard_abort>:
__cxa_guard_abort():
/mnt/c/user/privateWorkspace/School/OS/SP/KIV-RTOS/sources/userspace/cxxabi.cpp:21

	extern "C" void __cxa_guard_abort (__guard *)
	{
    8108:	e52db004 	push	{fp}		; (str fp, [sp, #-4]!)
    810c:	e28db000 	add	fp, sp, #0
    8110:	e24dd00c 	sub	sp, sp, #12
    8114:	e50b0008 	str	r0, [fp, #-8]
/mnt/c/user/privateWorkspace/School/OS/SP/KIV-RTOS/sources/userspace/cxxabi.cpp:23

	}
    8118:	e320f000 	nop	{0}
    811c:	e28bd000 	add	sp, fp, #0
    8120:	e49db004 	pop	{fp}		; (ldr fp, [sp], #4)
    8124:	e12fff1e 	bx	lr

00008128 <__dso_handle>:
__dso_handle():
/mnt/c/user/privateWorkspace/School/OS/SP/KIV-RTOS/sources/userspace/cxxabi.cpp:27
}

extern "C" void __dso_handle()
{
    8128:	e52db004 	push	{fp}		; (str fp, [sp, #-4]!)
    812c:	e28db000 	add	fp, sp, #0
/mnt/c/user/privateWorkspace/School/OS/SP/KIV-RTOS/sources/userspace/cxxabi.cpp:29
    // ignore dtors for now
}
    8130:	e320f000 	nop	{0}
    8134:	e28bd000 	add	sp, fp, #0
    8138:	e49db004 	pop	{fp}		; (ldr fp, [sp], #4)
    813c:	e12fff1e 	bx	lr

00008140 <__cxa_atexit>:
__cxa_atexit():
/mnt/c/user/privateWorkspace/School/OS/SP/KIV-RTOS/sources/userspace/cxxabi.cpp:32

extern "C" void __cxa_atexit()
{
    8140:	e52db004 	push	{fp}		; (str fp, [sp, #-4]!)
    8144:	e28db000 	add	fp, sp, #0
/mnt/c/user/privateWorkspace/School/OS/SP/KIV-RTOS/sources/userspace/cxxabi.cpp:34
    // ignore dtors for now
}
    8148:	e320f000 	nop	{0}
    814c:	e28bd000 	add	sp, fp, #0
    8150:	e49db004 	pop	{fp}		; (ldr fp, [sp], #4)
    8154:	e12fff1e 	bx	lr

00008158 <__cxa_pure_virtual>:
__cxa_pure_virtual():
/mnt/c/user/privateWorkspace/School/OS/SP/KIV-RTOS/sources/userspace/cxxabi.cpp:37

extern "C" void __cxa_pure_virtual()
{
    8158:	e52db004 	push	{fp}		; (str fp, [sp, #-4]!)
    815c:	e28db000 	add	fp, sp, #0
/mnt/c/user/privateWorkspace/School/OS/SP/KIV-RTOS/sources/userspace/cxxabi.cpp:39
    // pure virtual method called
}
    8160:	e320f000 	nop	{0}
    8164:	e28bd000 	add	sp, fp, #0
    8168:	e49db004 	pop	{fp}		; (ldr fp, [sp], #4)
    816c:	e12fff1e 	bx	lr

00008170 <__aeabi_unwind_cpp_pr1>:
__aeabi_unwind_cpp_pr1():
/mnt/c/user/privateWorkspace/School/OS/SP/KIV-RTOS/sources/userspace/cxxabi.cpp:42

extern "C" void __aeabi_unwind_cpp_pr1()
{
    8170:	e52db004 	push	{fp}		; (str fp, [sp, #-4]!)
    8174:	e28db000 	add	fp, sp, #0
/mnt/c/user/privateWorkspace/School/OS/SP/KIV-RTOS/sources/userspace/cxxabi.cpp:43 (discriminator 1)
	while (true)
    8178:	eafffffe 	b	8178 <__aeabi_unwind_cpp_pr1+0x8>

0000817c <_cpp_startup>:
_cpp_startup():
/mnt/c/user/privateWorkspace/School/OS/SP/KIV-RTOS/sources/userspace/cxxabi.cpp:61
extern "C" dtor_ptr __DTOR_LIST__[0];
// konec pole destruktoru
extern "C" dtor_ptr __DTOR_END__[0];

extern "C" int _cpp_startup(void)
{
    817c:	e92d4800 	push	{fp, lr}
    8180:	e28db004 	add	fp, sp, #4
    8184:	e24dd008 	sub	sp, sp, #8
/mnt/c/user/privateWorkspace/School/OS/SP/KIV-RTOS/sources/userspace/cxxabi.cpp:66
	ctor_ptr* fnptr;
	
	// zavolame konstruktory globalnich C++ trid
	// v poli __CTOR_LIST__ jsou ukazatele na vygenerovane stuby volani konstruktoru
	for (fnptr = __CTOR_LIST__; fnptr < __CTOR_END__; fnptr++)
    8188:	e59f303c 	ldr	r3, [pc, #60]	; 81cc <_cpp_startup+0x50>
    818c:	e50b3008 	str	r3, [fp, #-8]
/mnt/c/user/privateWorkspace/School/OS/SP/KIV-RTOS/sources/userspace/cxxabi.cpp:66 (discriminator 3)
    8190:	e51b3008 	ldr	r3, [fp, #-8]
    8194:	e59f2034 	ldr	r2, [pc, #52]	; 81d0 <_cpp_startup+0x54>
    8198:	e1530002 	cmp	r3, r2
    819c:	2a000006 	bcs	81bc <_cpp_startup+0x40>
/mnt/c/user/privateWorkspace/School/OS/SP/KIV-RTOS/sources/userspace/cxxabi.cpp:67 (discriminator 2)
		(*fnptr)();
    81a0:	e51b3008 	ldr	r3, [fp, #-8]
    81a4:	e5933000 	ldr	r3, [r3]
    81a8:	e12fff33 	blx	r3
/mnt/c/user/privateWorkspace/School/OS/SP/KIV-RTOS/sources/userspace/cxxabi.cpp:66 (discriminator 2)
	for (fnptr = __CTOR_LIST__; fnptr < __CTOR_END__; fnptr++)
    81ac:	e51b3008 	ldr	r3, [fp, #-8]
    81b0:	e2833004 	add	r3, r3, #4
    81b4:	e50b3008 	str	r3, [fp, #-8]
    81b8:	eafffff4 	b	8190 <_cpp_startup+0x14>
/mnt/c/user/privateWorkspace/School/OS/SP/KIV-RTOS/sources/userspace/cxxabi.cpp:69
	
	return 0;
    81bc:	e3a03000 	mov	r3, #0
/mnt/c/user/privateWorkspace/School/OS/SP/KIV-RTOS/sources/userspace/cxxabi.cpp:70
}
    81c0:	e1a00003 	mov	r0, r3
    81c4:	e24bd004 	sub	sp, fp, #4
    81c8:	e8bd8800 	pop	{fp, pc}
    81cc:	00009449 	andeq	r9, r0, r9, asr #8
    81d0:	00009449 	andeq	r9, r0, r9, asr #8

000081d4 <_cpp_shutdown>:
_cpp_shutdown():
/mnt/c/user/privateWorkspace/School/OS/SP/KIV-RTOS/sources/userspace/cxxabi.cpp:73

extern "C" int _cpp_shutdown(void)
{
    81d4:	e92d4800 	push	{fp, lr}
    81d8:	e28db004 	add	fp, sp, #4
    81dc:	e24dd008 	sub	sp, sp, #8
/mnt/c/user/privateWorkspace/School/OS/SP/KIV-RTOS/sources/userspace/cxxabi.cpp:77
	dtor_ptr* fnptr;
	
	// zavolame destruktory globalnich C++ trid
	for (fnptr = __DTOR_LIST__; fnptr < __DTOR_END__; fnptr++)
    81e0:	e59f303c 	ldr	r3, [pc, #60]	; 8224 <_cpp_shutdown+0x50>
    81e4:	e50b3008 	str	r3, [fp, #-8]
/mnt/c/user/privateWorkspace/School/OS/SP/KIV-RTOS/sources/userspace/cxxabi.cpp:77 (discriminator 3)
    81e8:	e51b3008 	ldr	r3, [fp, #-8]
    81ec:	e59f2034 	ldr	r2, [pc, #52]	; 8228 <_cpp_shutdown+0x54>
    81f0:	e1530002 	cmp	r3, r2
    81f4:	2a000006 	bcs	8214 <_cpp_shutdown+0x40>
/mnt/c/user/privateWorkspace/School/OS/SP/KIV-RTOS/sources/userspace/cxxabi.cpp:78 (discriminator 2)
		(*fnptr)();
    81f8:	e51b3008 	ldr	r3, [fp, #-8]
    81fc:	e5933000 	ldr	r3, [r3]
    8200:	e12fff33 	blx	r3
/mnt/c/user/privateWorkspace/School/OS/SP/KIV-RTOS/sources/userspace/cxxabi.cpp:77 (discriminator 2)
	for (fnptr = __DTOR_LIST__; fnptr < __DTOR_END__; fnptr++)
    8204:	e51b3008 	ldr	r3, [fp, #-8]
    8208:	e2833004 	add	r3, r3, #4
    820c:	e50b3008 	str	r3, [fp, #-8]
    8210:	eafffff4 	b	81e8 <_cpp_shutdown+0x14>
/mnt/c/user/privateWorkspace/School/OS/SP/KIV-RTOS/sources/userspace/cxxabi.cpp:80
	
	return 0;
    8214:	e3a03000 	mov	r3, #0
/mnt/c/user/privateWorkspace/School/OS/SP/KIV-RTOS/sources/userspace/cxxabi.cpp:81
}
    8218:	e1a00003 	mov	r0, r3
    821c:	e24bd004 	sub	sp, fp, #4
    8220:	e8bd8800 	pop	{fp, pc}
    8224:	00009449 	andeq	r9, r0, r9, asr #8
    8228:	00009449 	andeq	r9, r0, r9, asr #8

0000822c <main>:
main():
/mnt/c/user/privateWorkspace/School/OS/SP/KIV-RTOS/sources/userspace/init_task/main.cpp:6
#include <stdfile.h>

#include <process/process_manager.h>

int main(int argc, char** argv)
{
    822c:	e92d4800 	push	{fp, lr}
    8230:	e28db004 	add	fp, sp, #4
    8234:	e24dd008 	sub	sp, sp, #8
    8238:	e50b0008 	str	r0, [fp, #-8]
    823c:	e50b100c 	str	r1, [fp, #-12]
/mnt/c/user/privateWorkspace/School/OS/SP/KIV-RTOS/sources/userspace/init_task/main.cpp:11
	// systemovy init task startuje jako prvni, a ma nejnizsi prioritu ze vsech - bude se tedy planovat v podstate jen tehdy,
	// kdy nic jineho nikdo nema na praci

	// nastavime deadline na "nekonecno" = vlastne snizime dynamickou prioritu na nejnizsi moznou
	set_task_deadline(Indefinite);
    8240:	e3e00000 	mvn	r0, #0
    8244:	eb0000d7 	bl	85a8 <_Z17set_task_deadlinej>
/mnt/c/user/privateWorkspace/School/OS/SP/KIV-RTOS/sources/userspace/init_task/main.cpp:18
	// TODO: tady budeme chtit nechat spoustet zbytek procesu, az budeme umet nacitat treba z eMMC a SD karty
	
	while (true)
	{
		// kdyz je planovany jen tento proces, pockame na udalost (preruseni, ...)
		if (get_active_process_count() == 1)
    8248:	eb0000b8 	bl	8530 <_Z24get_active_process_countv>
    824c:	e1a03000 	mov	r3, r0
    8250:	e3530001 	cmp	r3, #1
    8254:	03a03001 	moveq	r3, #1
    8258:	13a03000 	movne	r3, #0
    825c:	e6ef3073 	uxtb	r3, r3
    8260:	e3530000 	cmp	r3, #0
    8264:	0a000000 	beq	826c <main+0x40>
/mnt/c/user/privateWorkspace/School/OS/SP/KIV-RTOS/sources/userspace/init_task/main.cpp:19
			asm volatile("wfe");
    8268:	e320f002 	wfe
/mnt/c/user/privateWorkspace/School/OS/SP/KIV-RTOS/sources/userspace/init_task/main.cpp:22

		// predame zbytek casoveho kvanta dalsimu procesu
		sched_yield();
    826c:	eb000016 	bl	82cc <_Z11sched_yieldv>
/mnt/c/user/privateWorkspace/School/OS/SP/KIV-RTOS/sources/userspace/init_task/main.cpp:18
		if (get_active_process_count() == 1)
    8270:	eafffff4 	b	8248 <main+0x1c>

00008274 <_Z6getpidv>:
_Z6getpidv():
/mnt/c/user/privateWorkspace/School/OS/SP/KIV-RTOS/sources/stdlib/src/stdfile.cpp:5
#include <stdfile.h>
#include <stdstring.h>

uint32_t getpid()
{
    8274:	e52db004 	push	{fp}		; (str fp, [sp, #-4]!)
    8278:	e28db000 	add	fp, sp, #0
    827c:	e24dd00c 	sub	sp, sp, #12
/mnt/c/user/privateWorkspace/School/OS/SP/KIV-RTOS/sources/stdlib/src/stdfile.cpp:8
    uint32_t pid;

    asm volatile("swi 0");
    8280:	ef000000 	svc	0x00000000
/mnt/c/user/privateWorkspace/School/OS/SP/KIV-RTOS/sources/stdlib/src/stdfile.cpp:9
    asm volatile("mov %0, r0" : "=r" (pid));
    8284:	e1a03000 	mov	r3, r0
    8288:	e50b3008 	str	r3, [fp, #-8]
/mnt/c/user/privateWorkspace/School/OS/SP/KIV-RTOS/sources/stdlib/src/stdfile.cpp:11

    return pid;
    828c:	e51b3008 	ldr	r3, [fp, #-8]
/mnt/c/user/privateWorkspace/School/OS/SP/KIV-RTOS/sources/stdlib/src/stdfile.cpp:12
}
    8290:	e1a00003 	mov	r0, r3
    8294:	e28bd000 	add	sp, fp, #0
    8298:	e49db004 	pop	{fp}		; (ldr fp, [sp], #4)
    829c:	e12fff1e 	bx	lr

000082a0 <_Z9terminatei>:
_Z9terminatei():
/mnt/c/user/privateWorkspace/School/OS/SP/KIV-RTOS/sources/stdlib/src/stdfile.cpp:15

void terminate(int exitcode)
{
    82a0:	e52db004 	push	{fp}		; (str fp, [sp, #-4]!)
    82a4:	e28db000 	add	fp, sp, #0
    82a8:	e24dd00c 	sub	sp, sp, #12
    82ac:	e50b0008 	str	r0, [fp, #-8]
/mnt/c/user/privateWorkspace/School/OS/SP/KIV-RTOS/sources/stdlib/src/stdfile.cpp:16
    asm volatile("mov r0, %0" : : "r" (exitcode));
    82b0:	e51b3008 	ldr	r3, [fp, #-8]
    82b4:	e1a00003 	mov	r0, r3
/mnt/c/user/privateWorkspace/School/OS/SP/KIV-RTOS/sources/stdlib/src/stdfile.cpp:17
    asm volatile("swi 1");
    82b8:	ef000001 	svc	0x00000001
/mnt/c/user/privateWorkspace/School/OS/SP/KIV-RTOS/sources/stdlib/src/stdfile.cpp:18
}
    82bc:	e320f000 	nop	{0}
    82c0:	e28bd000 	add	sp, fp, #0
    82c4:	e49db004 	pop	{fp}		; (ldr fp, [sp], #4)
    82c8:	e12fff1e 	bx	lr

000082cc <_Z11sched_yieldv>:
_Z11sched_yieldv():
/mnt/c/user/privateWorkspace/School/OS/SP/KIV-RTOS/sources/stdlib/src/stdfile.cpp:21

void sched_yield()
{
    82cc:	e52db004 	push	{fp}		; (str fp, [sp, #-4]!)
    82d0:	e28db000 	add	fp, sp, #0
/mnt/c/user/privateWorkspace/School/OS/SP/KIV-RTOS/sources/stdlib/src/stdfile.cpp:22
    asm volatile("swi 2");
    82d4:	ef000002 	svc	0x00000002
/mnt/c/user/privateWorkspace/School/OS/SP/KIV-RTOS/sources/stdlib/src/stdfile.cpp:23
}
    82d8:	e320f000 	nop	{0}
    82dc:	e28bd000 	add	sp, fp, #0
    82e0:	e49db004 	pop	{fp}		; (ldr fp, [sp], #4)
    82e4:	e12fff1e 	bx	lr

000082e8 <_Z4openPKc15NFile_Open_Mode>:
_Z4openPKc15NFile_Open_Mode():
/mnt/c/user/privateWorkspace/School/OS/SP/KIV-RTOS/sources/stdlib/src/stdfile.cpp:26

uint32_t open(const char* filename, NFile_Open_Mode mode)
{
    82e8:	e52db004 	push	{fp}		; (str fp, [sp, #-4]!)
    82ec:	e28db000 	add	fp, sp, #0
    82f0:	e24dd014 	sub	sp, sp, #20
    82f4:	e50b0010 	str	r0, [fp, #-16]
    82f8:	e50b1014 	str	r1, [fp, #-20]	; 0xffffffec
/mnt/c/user/privateWorkspace/School/OS/SP/KIV-RTOS/sources/stdlib/src/stdfile.cpp:29
    uint32_t file;

    asm volatile("mov r0, %0" : : "r" (filename));
    82fc:	e51b3010 	ldr	r3, [fp, #-16]
    8300:	e1a00003 	mov	r0, r3
/mnt/c/user/privateWorkspace/School/OS/SP/KIV-RTOS/sources/stdlib/src/stdfile.cpp:30
    asm volatile("mov r1, %0" : : "r" (mode));
    8304:	e51b3014 	ldr	r3, [fp, #-20]	; 0xffffffec
    8308:	e1a01003 	mov	r1, r3
/mnt/c/user/privateWorkspace/School/OS/SP/KIV-RTOS/sources/stdlib/src/stdfile.cpp:31
    asm volatile("swi 64");
    830c:	ef000040 	svc	0x00000040
/mnt/c/user/privateWorkspace/School/OS/SP/KIV-RTOS/sources/stdlib/src/stdfile.cpp:32
    asm volatile("mov %0, r0" : "=r" (file));
    8310:	e1a03000 	mov	r3, r0
    8314:	e50b3008 	str	r3, [fp, #-8]
/mnt/c/user/privateWorkspace/School/OS/SP/KIV-RTOS/sources/stdlib/src/stdfile.cpp:34

    return file;
    8318:	e51b3008 	ldr	r3, [fp, #-8]
/mnt/c/user/privateWorkspace/School/OS/SP/KIV-RTOS/sources/stdlib/src/stdfile.cpp:35
}
    831c:	e1a00003 	mov	r0, r3
    8320:	e28bd000 	add	sp, fp, #0
    8324:	e49db004 	pop	{fp}		; (ldr fp, [sp], #4)
    8328:	e12fff1e 	bx	lr

0000832c <_Z4readjPcj>:
_Z4readjPcj():
/mnt/c/user/privateWorkspace/School/OS/SP/KIV-RTOS/sources/stdlib/src/stdfile.cpp:38

uint32_t read(uint32_t file, char* const buffer, uint32_t size)
{
    832c:	e52db004 	push	{fp}		; (str fp, [sp, #-4]!)
    8330:	e28db000 	add	fp, sp, #0
    8334:	e24dd01c 	sub	sp, sp, #28
    8338:	e50b0010 	str	r0, [fp, #-16]
    833c:	e50b1014 	str	r1, [fp, #-20]	; 0xffffffec
    8340:	e50b2018 	str	r2, [fp, #-24]	; 0xffffffe8
/mnt/c/user/privateWorkspace/School/OS/SP/KIV-RTOS/sources/stdlib/src/stdfile.cpp:41
    uint32_t rdnum;

    asm volatile("mov r0, %0" : : "r" (file));
    8344:	e51b3010 	ldr	r3, [fp, #-16]
    8348:	e1a00003 	mov	r0, r3
/mnt/c/user/privateWorkspace/School/OS/SP/KIV-RTOS/sources/stdlib/src/stdfile.cpp:42
    asm volatile("mov r1, %0" : : "r" (buffer));
    834c:	e51b3014 	ldr	r3, [fp, #-20]	; 0xffffffec
    8350:	e1a01003 	mov	r1, r3
/mnt/c/user/privateWorkspace/School/OS/SP/KIV-RTOS/sources/stdlib/src/stdfile.cpp:43
    asm volatile("mov r2, %0" : : "r" (size));
    8354:	e51b3018 	ldr	r3, [fp, #-24]	; 0xffffffe8
    8358:	e1a02003 	mov	r2, r3
/mnt/c/user/privateWorkspace/School/OS/SP/KIV-RTOS/sources/stdlib/src/stdfile.cpp:44
    asm volatile("swi 65");
    835c:	ef000041 	svc	0x00000041
/mnt/c/user/privateWorkspace/School/OS/SP/KIV-RTOS/sources/stdlib/src/stdfile.cpp:45
    asm volatile("mov %0, r0" : "=r" (rdnum));
    8360:	e1a03000 	mov	r3, r0
    8364:	e50b3008 	str	r3, [fp, #-8]
/mnt/c/user/privateWorkspace/School/OS/SP/KIV-RTOS/sources/stdlib/src/stdfile.cpp:47

    return rdnum;
    8368:	e51b3008 	ldr	r3, [fp, #-8]
/mnt/c/user/privateWorkspace/School/OS/SP/KIV-RTOS/sources/stdlib/src/stdfile.cpp:48
}
    836c:	e1a00003 	mov	r0, r3
    8370:	e28bd000 	add	sp, fp, #0
    8374:	e49db004 	pop	{fp}		; (ldr fp, [sp], #4)
    8378:	e12fff1e 	bx	lr

0000837c <_Z5writejPKcj>:
_Z5writejPKcj():
/mnt/c/user/privateWorkspace/School/OS/SP/KIV-RTOS/sources/stdlib/src/stdfile.cpp:51

uint32_t write(uint32_t file, const char* buffer, uint32_t size)
{
    837c:	e52db004 	push	{fp}		; (str fp, [sp, #-4]!)
    8380:	e28db000 	add	fp, sp, #0
    8384:	e24dd01c 	sub	sp, sp, #28
    8388:	e50b0010 	str	r0, [fp, #-16]
    838c:	e50b1014 	str	r1, [fp, #-20]	; 0xffffffec
    8390:	e50b2018 	str	r2, [fp, #-24]	; 0xffffffe8
/mnt/c/user/privateWorkspace/School/OS/SP/KIV-RTOS/sources/stdlib/src/stdfile.cpp:54
    uint32_t wrnum;

    asm volatile("mov r0, %0" : : "r" (file));
    8394:	e51b3010 	ldr	r3, [fp, #-16]
    8398:	e1a00003 	mov	r0, r3
/mnt/c/user/privateWorkspace/School/OS/SP/KIV-RTOS/sources/stdlib/src/stdfile.cpp:55
    asm volatile("mov r1, %0" : : "r" (buffer));
    839c:	e51b3014 	ldr	r3, [fp, #-20]	; 0xffffffec
    83a0:	e1a01003 	mov	r1, r3
/mnt/c/user/privateWorkspace/School/OS/SP/KIV-RTOS/sources/stdlib/src/stdfile.cpp:56
    asm volatile("mov r2, %0" : : "r" (size));
    83a4:	e51b3018 	ldr	r3, [fp, #-24]	; 0xffffffe8
    83a8:	e1a02003 	mov	r2, r3
/mnt/c/user/privateWorkspace/School/OS/SP/KIV-RTOS/sources/stdlib/src/stdfile.cpp:57
    asm volatile("swi 66");
    83ac:	ef000042 	svc	0x00000042
/mnt/c/user/privateWorkspace/School/OS/SP/KIV-RTOS/sources/stdlib/src/stdfile.cpp:58
    asm volatile("mov %0, r0" : "=r" (wrnum));
    83b0:	e1a03000 	mov	r3, r0
    83b4:	e50b3008 	str	r3, [fp, #-8]
/mnt/c/user/privateWorkspace/School/OS/SP/KIV-RTOS/sources/stdlib/src/stdfile.cpp:60

    return wrnum;
    83b8:	e51b3008 	ldr	r3, [fp, #-8]
/mnt/c/user/privateWorkspace/School/OS/SP/KIV-RTOS/sources/stdlib/src/stdfile.cpp:61
}
    83bc:	e1a00003 	mov	r0, r3
    83c0:	e28bd000 	add	sp, fp, #0
    83c4:	e49db004 	pop	{fp}		; (ldr fp, [sp], #4)
    83c8:	e12fff1e 	bx	lr

000083cc <_Z5closej>:
_Z5closej():
/mnt/c/user/privateWorkspace/School/OS/SP/KIV-RTOS/sources/stdlib/src/stdfile.cpp:64

void close(uint32_t file)
{
    83cc:	e52db004 	push	{fp}		; (str fp, [sp, #-4]!)
    83d0:	e28db000 	add	fp, sp, #0
    83d4:	e24dd00c 	sub	sp, sp, #12
    83d8:	e50b0008 	str	r0, [fp, #-8]
/mnt/c/user/privateWorkspace/School/OS/SP/KIV-RTOS/sources/stdlib/src/stdfile.cpp:65
    asm volatile("mov r0, %0" : : "r" (file));
    83dc:	e51b3008 	ldr	r3, [fp, #-8]
    83e0:	e1a00003 	mov	r0, r3
/mnt/c/user/privateWorkspace/School/OS/SP/KIV-RTOS/sources/stdlib/src/stdfile.cpp:66
    asm volatile("swi 67");
    83e4:	ef000043 	svc	0x00000043
/mnt/c/user/privateWorkspace/School/OS/SP/KIV-RTOS/sources/stdlib/src/stdfile.cpp:67
}
    83e8:	e320f000 	nop	{0}
    83ec:	e28bd000 	add	sp, fp, #0
    83f0:	e49db004 	pop	{fp}		; (ldr fp, [sp], #4)
    83f4:	e12fff1e 	bx	lr

000083f8 <_Z5ioctlj16NIOCtl_OperationPv>:
_Z5ioctlj16NIOCtl_OperationPv():
/mnt/c/user/privateWorkspace/School/OS/SP/KIV-RTOS/sources/stdlib/src/stdfile.cpp:70

uint32_t ioctl(uint32_t file, NIOCtl_Operation operation, void* param)
{
    83f8:	e52db004 	push	{fp}		; (str fp, [sp, #-4]!)
    83fc:	e28db000 	add	fp, sp, #0
    8400:	e24dd01c 	sub	sp, sp, #28
    8404:	e50b0010 	str	r0, [fp, #-16]
    8408:	e50b1014 	str	r1, [fp, #-20]	; 0xffffffec
    840c:	e50b2018 	str	r2, [fp, #-24]	; 0xffffffe8
/mnt/c/user/privateWorkspace/School/OS/SP/KIV-RTOS/sources/stdlib/src/stdfile.cpp:73
    uint32_t retcode;

    asm volatile("mov r0, %0" : : "r" (file));
    8410:	e51b3010 	ldr	r3, [fp, #-16]
    8414:	e1a00003 	mov	r0, r3
/mnt/c/user/privateWorkspace/School/OS/SP/KIV-RTOS/sources/stdlib/src/stdfile.cpp:74
    asm volatile("mov r1, %0" : : "r" (operation));
    8418:	e51b3014 	ldr	r3, [fp, #-20]	; 0xffffffec
    841c:	e1a01003 	mov	r1, r3
/mnt/c/user/privateWorkspace/School/OS/SP/KIV-RTOS/sources/stdlib/src/stdfile.cpp:75
    asm volatile("mov r2, %0" : : "r" (param));
    8420:	e51b3018 	ldr	r3, [fp, #-24]	; 0xffffffe8
    8424:	e1a02003 	mov	r2, r3
/mnt/c/user/privateWorkspace/School/OS/SP/KIV-RTOS/sources/stdlib/src/stdfile.cpp:76
    asm volatile("swi 68");
    8428:	ef000044 	svc	0x00000044
/mnt/c/user/privateWorkspace/School/OS/SP/KIV-RTOS/sources/stdlib/src/stdfile.cpp:77
    asm volatile("mov %0, r0" : "=r" (retcode));
    842c:	e1a03000 	mov	r3, r0
    8430:	e50b3008 	str	r3, [fp, #-8]
/mnt/c/user/privateWorkspace/School/OS/SP/KIV-RTOS/sources/stdlib/src/stdfile.cpp:79

    return retcode;
    8434:	e51b3008 	ldr	r3, [fp, #-8]
/mnt/c/user/privateWorkspace/School/OS/SP/KIV-RTOS/sources/stdlib/src/stdfile.cpp:80
}
    8438:	e1a00003 	mov	r0, r3
    843c:	e28bd000 	add	sp, fp, #0
    8440:	e49db004 	pop	{fp}		; (ldr fp, [sp], #4)
    8444:	e12fff1e 	bx	lr

00008448 <_Z6notifyjj>:
_Z6notifyjj():
/mnt/c/user/privateWorkspace/School/OS/SP/KIV-RTOS/sources/stdlib/src/stdfile.cpp:83

uint32_t notify(uint32_t file, uint32_t count)
{
    8448:	e52db004 	push	{fp}		; (str fp, [sp, #-4]!)
    844c:	e28db000 	add	fp, sp, #0
    8450:	e24dd014 	sub	sp, sp, #20
    8454:	e50b0010 	str	r0, [fp, #-16]
    8458:	e50b1014 	str	r1, [fp, #-20]	; 0xffffffec
/mnt/c/user/privateWorkspace/School/OS/SP/KIV-RTOS/sources/stdlib/src/stdfile.cpp:86
    uint32_t retcnt;

    asm volatile("mov r0, %0" : : "r" (file));
    845c:	e51b3010 	ldr	r3, [fp, #-16]
    8460:	e1a00003 	mov	r0, r3
/mnt/c/user/privateWorkspace/School/OS/SP/KIV-RTOS/sources/stdlib/src/stdfile.cpp:87
    asm volatile("mov r1, %0" : : "r" (count));
    8464:	e51b3014 	ldr	r3, [fp, #-20]	; 0xffffffec
    8468:	e1a01003 	mov	r1, r3
/mnt/c/user/privateWorkspace/School/OS/SP/KIV-RTOS/sources/stdlib/src/stdfile.cpp:88
    asm volatile("swi 69");
    846c:	ef000045 	svc	0x00000045
/mnt/c/user/privateWorkspace/School/OS/SP/KIV-RTOS/sources/stdlib/src/stdfile.cpp:89
    asm volatile("mov %0, r0" : "=r" (retcnt));
    8470:	e1a03000 	mov	r3, r0
    8474:	e50b3008 	str	r3, [fp, #-8]
/mnt/c/user/privateWorkspace/School/OS/SP/KIV-RTOS/sources/stdlib/src/stdfile.cpp:91

    return retcnt;
    8478:	e51b3008 	ldr	r3, [fp, #-8]
/mnt/c/user/privateWorkspace/School/OS/SP/KIV-RTOS/sources/stdlib/src/stdfile.cpp:92
}
    847c:	e1a00003 	mov	r0, r3
    8480:	e28bd000 	add	sp, fp, #0
    8484:	e49db004 	pop	{fp}		; (ldr fp, [sp], #4)
    8488:	e12fff1e 	bx	lr

0000848c <_Z4waitjjj>:
_Z4waitjjj():
/mnt/c/user/privateWorkspace/School/OS/SP/KIV-RTOS/sources/stdlib/src/stdfile.cpp:95

NSWI_Result_Code wait(uint32_t file, uint32_t count, uint32_t notified_deadline)
{
    848c:	e52db004 	push	{fp}		; (str fp, [sp, #-4]!)
    8490:	e28db000 	add	fp, sp, #0
    8494:	e24dd01c 	sub	sp, sp, #28
    8498:	e50b0010 	str	r0, [fp, #-16]
    849c:	e50b1014 	str	r1, [fp, #-20]	; 0xffffffec
    84a0:	e50b2018 	str	r2, [fp, #-24]	; 0xffffffe8
/mnt/c/user/privateWorkspace/School/OS/SP/KIV-RTOS/sources/stdlib/src/stdfile.cpp:98
    NSWI_Result_Code retcode;

    asm volatile("mov r0, %0" : : "r" (file));
    84a4:	e51b3010 	ldr	r3, [fp, #-16]
    84a8:	e1a00003 	mov	r0, r3
/mnt/c/user/privateWorkspace/School/OS/SP/KIV-RTOS/sources/stdlib/src/stdfile.cpp:99
    asm volatile("mov r1, %0" : : "r" (count));
    84ac:	e51b3014 	ldr	r3, [fp, #-20]	; 0xffffffec
    84b0:	e1a01003 	mov	r1, r3
/mnt/c/user/privateWorkspace/School/OS/SP/KIV-RTOS/sources/stdlib/src/stdfile.cpp:100
    asm volatile("mov r2, %0" : : "r" (notified_deadline));
    84b4:	e51b3018 	ldr	r3, [fp, #-24]	; 0xffffffe8
    84b8:	e1a02003 	mov	r2, r3
/mnt/c/user/privateWorkspace/School/OS/SP/KIV-RTOS/sources/stdlib/src/stdfile.cpp:101
    asm volatile("swi 70");
    84bc:	ef000046 	svc	0x00000046
/mnt/c/user/privateWorkspace/School/OS/SP/KIV-RTOS/sources/stdlib/src/stdfile.cpp:102
    asm volatile("mov %0, r0" : "=r" (retcode));
    84c0:	e1a03000 	mov	r3, r0
    84c4:	e50b3008 	str	r3, [fp, #-8]
/mnt/c/user/privateWorkspace/School/OS/SP/KIV-RTOS/sources/stdlib/src/stdfile.cpp:104

    return retcode;
    84c8:	e51b3008 	ldr	r3, [fp, #-8]
/mnt/c/user/privateWorkspace/School/OS/SP/KIV-RTOS/sources/stdlib/src/stdfile.cpp:105
}
    84cc:	e1a00003 	mov	r0, r3
    84d0:	e28bd000 	add	sp, fp, #0
    84d4:	e49db004 	pop	{fp}		; (ldr fp, [sp], #4)
    84d8:	e12fff1e 	bx	lr

000084dc <_Z5sleepjj>:
_Z5sleepjj():
/mnt/c/user/privateWorkspace/School/OS/SP/KIV-RTOS/sources/stdlib/src/stdfile.cpp:108

bool sleep(uint32_t ticks, uint32_t notified_deadline)
{
    84dc:	e52db004 	push	{fp}		; (str fp, [sp, #-4]!)
    84e0:	e28db000 	add	fp, sp, #0
    84e4:	e24dd014 	sub	sp, sp, #20
    84e8:	e50b0010 	str	r0, [fp, #-16]
    84ec:	e50b1014 	str	r1, [fp, #-20]	; 0xffffffec
/mnt/c/user/privateWorkspace/School/OS/SP/KIV-RTOS/sources/stdlib/src/stdfile.cpp:111
    uint32_t retcode;

    asm volatile("mov r0, %0" : : "r" (ticks));
    84f0:	e51b3010 	ldr	r3, [fp, #-16]
    84f4:	e1a00003 	mov	r0, r3
/mnt/c/user/privateWorkspace/School/OS/SP/KIV-RTOS/sources/stdlib/src/stdfile.cpp:112
    asm volatile("mov r1, %0" : : "r" (notified_deadline));
    84f8:	e51b3014 	ldr	r3, [fp, #-20]	; 0xffffffec
    84fc:	e1a01003 	mov	r1, r3
/mnt/c/user/privateWorkspace/School/OS/SP/KIV-RTOS/sources/stdlib/src/stdfile.cpp:113
    asm volatile("swi 3");
    8500:	ef000003 	svc	0x00000003
/mnt/c/user/privateWorkspace/School/OS/SP/KIV-RTOS/sources/stdlib/src/stdfile.cpp:114
    asm volatile("mov %0, r0" : "=r" (retcode));
    8504:	e1a03000 	mov	r3, r0
    8508:	e50b3008 	str	r3, [fp, #-8]
/mnt/c/user/privateWorkspace/School/OS/SP/KIV-RTOS/sources/stdlib/src/stdfile.cpp:116

    return retcode;
    850c:	e51b3008 	ldr	r3, [fp, #-8]
    8510:	e3530000 	cmp	r3, #0
    8514:	13a03001 	movne	r3, #1
    8518:	03a03000 	moveq	r3, #0
    851c:	e6ef3073 	uxtb	r3, r3
/mnt/c/user/privateWorkspace/School/OS/SP/KIV-RTOS/sources/stdlib/src/stdfile.cpp:117
}
    8520:	e1a00003 	mov	r0, r3
    8524:	e28bd000 	add	sp, fp, #0
    8528:	e49db004 	pop	{fp}		; (ldr fp, [sp], #4)
    852c:	e12fff1e 	bx	lr

00008530 <_Z24get_active_process_countv>:
_Z24get_active_process_countv():
/mnt/c/user/privateWorkspace/School/OS/SP/KIV-RTOS/sources/stdlib/src/stdfile.cpp:120

uint32_t get_active_process_count()
{
    8530:	e52db004 	push	{fp}		; (str fp, [sp, #-4]!)
    8534:	e28db000 	add	fp, sp, #0
    8538:	e24dd00c 	sub	sp, sp, #12
/mnt/c/user/privateWorkspace/School/OS/SP/KIV-RTOS/sources/stdlib/src/stdfile.cpp:121
    const NGet_Sched_Info_Type req = NGet_Sched_Info_Type::Active_Process_Count;
    853c:	e3a03000 	mov	r3, #0
    8540:	e50b3008 	str	r3, [fp, #-8]
/mnt/c/user/privateWorkspace/School/OS/SP/KIV-RTOS/sources/stdlib/src/stdfile.cpp:124
    uint32_t retval;

    asm volatile("mov r0, %0" : : "r" (req));
    8544:	e3a03000 	mov	r3, #0
    8548:	e1a00003 	mov	r0, r3
/mnt/c/user/privateWorkspace/School/OS/SP/KIV-RTOS/sources/stdlib/src/stdfile.cpp:125
    asm volatile("mov r1, %0" : : "r" (&retval));
    854c:	e24b300c 	sub	r3, fp, #12
    8550:	e1a01003 	mov	r1, r3
/mnt/c/user/privateWorkspace/School/OS/SP/KIV-RTOS/sources/stdlib/src/stdfile.cpp:126
    asm volatile("swi 4");
    8554:	ef000004 	svc	0x00000004
/mnt/c/user/privateWorkspace/School/OS/SP/KIV-RTOS/sources/stdlib/src/stdfile.cpp:128

    return retval;
    8558:	e51b300c 	ldr	r3, [fp, #-12]
/mnt/c/user/privateWorkspace/School/OS/SP/KIV-RTOS/sources/stdlib/src/stdfile.cpp:129
}
    855c:	e1a00003 	mov	r0, r3
    8560:	e28bd000 	add	sp, fp, #0
    8564:	e49db004 	pop	{fp}		; (ldr fp, [sp], #4)
    8568:	e12fff1e 	bx	lr

0000856c <_Z14get_tick_countv>:
_Z14get_tick_countv():
/mnt/c/user/privateWorkspace/School/OS/SP/KIV-RTOS/sources/stdlib/src/stdfile.cpp:132

uint32_t get_tick_count()
{
    856c:	e52db004 	push	{fp}		; (str fp, [sp, #-4]!)
    8570:	e28db000 	add	fp, sp, #0
    8574:	e24dd00c 	sub	sp, sp, #12
/mnt/c/user/privateWorkspace/School/OS/SP/KIV-RTOS/sources/stdlib/src/stdfile.cpp:133
    const NGet_Sched_Info_Type req = NGet_Sched_Info_Type::Tick_Count;
    8578:	e3a03001 	mov	r3, #1
    857c:	e50b3008 	str	r3, [fp, #-8]
/mnt/c/user/privateWorkspace/School/OS/SP/KIV-RTOS/sources/stdlib/src/stdfile.cpp:136
    uint32_t retval;

    asm volatile("mov r0, %0" : : "r" (req));
    8580:	e3a03001 	mov	r3, #1
    8584:	e1a00003 	mov	r0, r3
/mnt/c/user/privateWorkspace/School/OS/SP/KIV-RTOS/sources/stdlib/src/stdfile.cpp:137
    asm volatile("mov r1, %0" : : "r" (&retval));
    8588:	e24b300c 	sub	r3, fp, #12
    858c:	e1a01003 	mov	r1, r3
/mnt/c/user/privateWorkspace/School/OS/SP/KIV-RTOS/sources/stdlib/src/stdfile.cpp:138
    asm volatile("swi 4");
    8590:	ef000004 	svc	0x00000004
/mnt/c/user/privateWorkspace/School/OS/SP/KIV-RTOS/sources/stdlib/src/stdfile.cpp:140

    return retval;
    8594:	e51b300c 	ldr	r3, [fp, #-12]
/mnt/c/user/privateWorkspace/School/OS/SP/KIV-RTOS/sources/stdlib/src/stdfile.cpp:141
}
    8598:	e1a00003 	mov	r0, r3
    859c:	e28bd000 	add	sp, fp, #0
    85a0:	e49db004 	pop	{fp}		; (ldr fp, [sp], #4)
    85a4:	e12fff1e 	bx	lr

000085a8 <_Z17set_task_deadlinej>:
_Z17set_task_deadlinej():
/mnt/c/user/privateWorkspace/School/OS/SP/KIV-RTOS/sources/stdlib/src/stdfile.cpp:144

void set_task_deadline(uint32_t tick_count_required)
{
    85a8:	e52db004 	push	{fp}		; (str fp, [sp, #-4]!)
    85ac:	e28db000 	add	fp, sp, #0
    85b0:	e24dd014 	sub	sp, sp, #20
    85b4:	e50b0010 	str	r0, [fp, #-16]
/mnt/c/user/privateWorkspace/School/OS/SP/KIV-RTOS/sources/stdlib/src/stdfile.cpp:145
    const NDeadline_Subservice req = NDeadline_Subservice::Set_Relative;
    85b8:	e3a03000 	mov	r3, #0
    85bc:	e50b3008 	str	r3, [fp, #-8]
/mnt/c/user/privateWorkspace/School/OS/SP/KIV-RTOS/sources/stdlib/src/stdfile.cpp:147

    asm volatile("mov r0, %0" : : "r" (req));
    85c0:	e3a03000 	mov	r3, #0
    85c4:	e1a00003 	mov	r0, r3
/mnt/c/user/privateWorkspace/School/OS/SP/KIV-RTOS/sources/stdlib/src/stdfile.cpp:148
    asm volatile("mov r1, %0" : : "r" (&tick_count_required));
    85c8:	e24b3010 	sub	r3, fp, #16
    85cc:	e1a01003 	mov	r1, r3
/mnt/c/user/privateWorkspace/School/OS/SP/KIV-RTOS/sources/stdlib/src/stdfile.cpp:149
    asm volatile("swi 5");
    85d0:	ef000005 	svc	0x00000005
/mnt/c/user/privateWorkspace/School/OS/SP/KIV-RTOS/sources/stdlib/src/stdfile.cpp:150
}
    85d4:	e320f000 	nop	{0}
    85d8:	e28bd000 	add	sp, fp, #0
    85dc:	e49db004 	pop	{fp}		; (ldr fp, [sp], #4)
    85e0:	e12fff1e 	bx	lr

000085e4 <_Z26get_task_ticks_to_deadlinev>:
_Z26get_task_ticks_to_deadlinev():
/mnt/c/user/privateWorkspace/School/OS/SP/KIV-RTOS/sources/stdlib/src/stdfile.cpp:153

uint32_t get_task_ticks_to_deadline()
{
    85e4:	e52db004 	push	{fp}		; (str fp, [sp, #-4]!)
    85e8:	e28db000 	add	fp, sp, #0
    85ec:	e24dd00c 	sub	sp, sp, #12
/mnt/c/user/privateWorkspace/School/OS/SP/KIV-RTOS/sources/stdlib/src/stdfile.cpp:154
    const NDeadline_Subservice req = NDeadline_Subservice::Get_Remaining;
    85f0:	e3a03001 	mov	r3, #1
    85f4:	e50b3008 	str	r3, [fp, #-8]
/mnt/c/user/privateWorkspace/School/OS/SP/KIV-RTOS/sources/stdlib/src/stdfile.cpp:157
    uint32_t ticks;

    asm volatile("mov r0, %0" : : "r" (req));
    85f8:	e3a03001 	mov	r3, #1
    85fc:	e1a00003 	mov	r0, r3
/mnt/c/user/privateWorkspace/School/OS/SP/KIV-RTOS/sources/stdlib/src/stdfile.cpp:158
    asm volatile("mov r1, %0" : : "r" (&ticks));
    8600:	e24b300c 	sub	r3, fp, #12
    8604:	e1a01003 	mov	r1, r3
/mnt/c/user/privateWorkspace/School/OS/SP/KIV-RTOS/sources/stdlib/src/stdfile.cpp:159
    asm volatile("swi 5");
    8608:	ef000005 	svc	0x00000005
/mnt/c/user/privateWorkspace/School/OS/SP/KIV-RTOS/sources/stdlib/src/stdfile.cpp:161

    return ticks;
    860c:	e51b300c 	ldr	r3, [fp, #-12]
/mnt/c/user/privateWorkspace/School/OS/SP/KIV-RTOS/sources/stdlib/src/stdfile.cpp:162
}
    8610:	e1a00003 	mov	r0, r3
    8614:	e28bd000 	add	sp, fp, #0
    8618:	e49db004 	pop	{fp}		; (ldr fp, [sp], #4)
    861c:	e12fff1e 	bx	lr

00008620 <_Z4pipePKcj>:
_Z4pipePKcj():
/mnt/c/user/privateWorkspace/School/OS/SP/KIV-RTOS/sources/stdlib/src/stdfile.cpp:167

const char Pipe_File_Prefix[] = "SYS:pipe/";

uint32_t pipe(const char* name, uint32_t buf_size)
{
    8620:	e92d4800 	push	{fp, lr}
    8624:	e28db004 	add	fp, sp, #4
    8628:	e24dd050 	sub	sp, sp, #80	; 0x50
    862c:	e50b0050 	str	r0, [fp, #-80]	; 0xffffffb0
    8630:	e50b1054 	str	r1, [fp, #-84]	; 0xffffffac
/mnt/c/user/privateWorkspace/School/OS/SP/KIV-RTOS/sources/stdlib/src/stdfile.cpp:169
    char fname[64];
    strncpy(fname, Pipe_File_Prefix, sizeof(Pipe_File_Prefix));
    8634:	e24b3048 	sub	r3, fp, #72	; 0x48
    8638:	e3a0200a 	mov	r2, #10
    863c:	e59f1088 	ldr	r1, [pc, #136]	; 86cc <_Z4pipePKcj+0xac>
    8640:	e1a00003 	mov	r0, r3
    8644:	eb000250 	bl	8f8c <_Z7strncpyPcPKci>
/mnt/c/user/privateWorkspace/School/OS/SP/KIV-RTOS/sources/stdlib/src/stdfile.cpp:170
    strncpy(fname + sizeof(Pipe_File_Prefix), name, sizeof(fname) - sizeof(Pipe_File_Prefix) - 1);
    8648:	e24b3048 	sub	r3, fp, #72	; 0x48
    864c:	e283300a 	add	r3, r3, #10
    8650:	e3a02035 	mov	r2, #53	; 0x35
    8654:	e51b1050 	ldr	r1, [fp, #-80]	; 0xffffffb0
    8658:	e1a00003 	mov	r0, r3
    865c:	eb00024a 	bl	8f8c <_Z7strncpyPcPKci>
/mnt/c/user/privateWorkspace/School/OS/SP/KIV-RTOS/sources/stdlib/src/stdfile.cpp:172

    int ncur = sizeof(Pipe_File_Prefix) + strlen(name);
    8660:	e51b0050 	ldr	r0, [fp, #-80]	; 0xffffffb0
    8664:	eb0002d8 	bl	91cc <_Z6strlenPKc>
    8668:	e1a03000 	mov	r3, r0
    866c:	e283300a 	add	r3, r3, #10
    8670:	e50b3008 	str	r3, [fp, #-8]
/mnt/c/user/privateWorkspace/School/OS/SP/KIV-RTOS/sources/stdlib/src/stdfile.cpp:174

    fname[ncur++] = '#';
    8674:	e51b3008 	ldr	r3, [fp, #-8]
    8678:	e2832001 	add	r2, r3, #1
    867c:	e50b2008 	str	r2, [fp, #-8]
    8680:	e24b2004 	sub	r2, fp, #4
    8684:	e0823003 	add	r3, r2, r3
    8688:	e3a02023 	mov	r2, #35	; 0x23
    868c:	e5432044 	strb	r2, [r3, #-68]	; 0xffffffbc
/mnt/c/user/privateWorkspace/School/OS/SP/KIV-RTOS/sources/stdlib/src/stdfile.cpp:176

    itoa(buf_size, &fname[ncur], 10);
    8690:	e24b2048 	sub	r2, fp, #72	; 0x48
    8694:	e51b3008 	ldr	r3, [fp, #-8]
    8698:	e0823003 	add	r3, r2, r3
    869c:	e3a0200a 	mov	r2, #10
    86a0:	e1a01003 	mov	r1, r3
    86a4:	e51b0054 	ldr	r0, [fp, #-84]	; 0xffffffac
    86a8:	eb000008 	bl	86d0 <_Z4itoajPcj>
/mnt/c/user/privateWorkspace/School/OS/SP/KIV-RTOS/sources/stdlib/src/stdfile.cpp:178

    return open(fname, NFile_Open_Mode::Read_Write);
    86ac:	e24b3048 	sub	r3, fp, #72	; 0x48
    86b0:	e3a01002 	mov	r1, #2
    86b4:	e1a00003 	mov	r0, r3
    86b8:	ebffff0a 	bl	82e8 <_Z4openPKc15NFile_Open_Mode>
    86bc:	e1a03000 	mov	r3, r0
/mnt/c/user/privateWorkspace/School/OS/SP/KIV-RTOS/sources/stdlib/src/stdfile.cpp:179
}
    86c0:	e1a00003 	mov	r0, r3
    86c4:	e24bd004 	sub	sp, fp, #4
    86c8:	e8bd8800 	pop	{fp, pc}
    86cc:	0000942c 	andeq	r9, r0, ip, lsr #8

000086d0 <_Z4itoajPcj>:
_Z4itoajPcj():
/mnt/c/user/privateWorkspace/School/OS/SP/KIV-RTOS/sources/stdlib/src/stdstring.cpp:11
{
    const char CharConvArr[] = "0123456789ABCDEF";
}

void itoa(unsigned int input, char* output, unsigned int base)
{
    86d0:	e92d4800 	push	{fp, lr}
    86d4:	e28db004 	add	fp, sp, #4
    86d8:	e24dd020 	sub	sp, sp, #32
    86dc:	e50b0018 	str	r0, [fp, #-24]	; 0xffffffe8
    86e0:	e50b101c 	str	r1, [fp, #-28]	; 0xffffffe4
    86e4:	e50b2020 	str	r2, [fp, #-32]	; 0xffffffe0
/mnt/c/user/privateWorkspace/School/OS/SP/KIV-RTOS/sources/stdlib/src/stdstring.cpp:12
	int i = 0;
    86e8:	e3a03000 	mov	r3, #0
    86ec:	e50b3008 	str	r3, [fp, #-8]
/mnt/c/user/privateWorkspace/School/OS/SP/KIV-RTOS/sources/stdlib/src/stdstring.cpp:14

	while (input > 0)
    86f0:	e51b3018 	ldr	r3, [fp, #-24]	; 0xffffffe8
    86f4:	e3530000 	cmp	r3, #0
    86f8:	0a000014 	beq	8750 <_Z4itoajPcj+0x80>
/mnt/c/user/privateWorkspace/School/OS/SP/KIV-RTOS/sources/stdlib/src/stdstring.cpp:16
	{
		output[i] = CharConvArr[input % base];
    86fc:	e51b3018 	ldr	r3, [fp, #-24]	; 0xffffffe8
    8700:	e51b1020 	ldr	r1, [fp, #-32]	; 0xffffffe0
    8704:	e1a00003 	mov	r0, r3
    8708:	eb000328 	bl	93b0 <__aeabi_uidivmod>
    870c:	e1a03001 	mov	r3, r1
    8710:	e1a01003 	mov	r1, r3
    8714:	e51b3008 	ldr	r3, [fp, #-8]
    8718:	e51b201c 	ldr	r2, [fp, #-28]	; 0xffffffe4
    871c:	e0823003 	add	r3, r2, r3
    8720:	e59f2118 	ldr	r2, [pc, #280]	; 8840 <_Z4itoajPcj+0x170>
    8724:	e7d22001 	ldrb	r2, [r2, r1]
    8728:	e5c32000 	strb	r2, [r3]
/mnt/c/user/privateWorkspace/School/OS/SP/KIV-RTOS/sources/stdlib/src/stdstring.cpp:17
		input /= base;
    872c:	e51b1020 	ldr	r1, [fp, #-32]	; 0xffffffe0
    8730:	e51b0018 	ldr	r0, [fp, #-24]	; 0xffffffe8
    8734:	eb0002f3 	bl	9308 <__udivsi3>
    8738:	e1a03000 	mov	r3, r0
    873c:	e50b3018 	str	r3, [fp, #-24]	; 0xffffffe8
/mnt/c/user/privateWorkspace/School/OS/SP/KIV-RTOS/sources/stdlib/src/stdstring.cpp:18
		i++;
    8740:	e51b3008 	ldr	r3, [fp, #-8]
    8744:	e2833001 	add	r3, r3, #1
    8748:	e50b3008 	str	r3, [fp, #-8]
/mnt/c/user/privateWorkspace/School/OS/SP/KIV-RTOS/sources/stdlib/src/stdstring.cpp:14
	while (input > 0)
    874c:	eaffffe7 	b	86f0 <_Z4itoajPcj+0x20>
/mnt/c/user/privateWorkspace/School/OS/SP/KIV-RTOS/sources/stdlib/src/stdstring.cpp:21
	}

    if (i == 0)
    8750:	e51b3008 	ldr	r3, [fp, #-8]
    8754:	e3530000 	cmp	r3, #0
    8758:	1a000007 	bne	877c <_Z4itoajPcj+0xac>
/mnt/c/user/privateWorkspace/School/OS/SP/KIV-RTOS/sources/stdlib/src/stdstring.cpp:23
    {
        output[i] = CharConvArr[0];
    875c:	e51b3008 	ldr	r3, [fp, #-8]
    8760:	e51b201c 	ldr	r2, [fp, #-28]	; 0xffffffe4
    8764:	e0823003 	add	r3, r2, r3
    8768:	e3a02030 	mov	r2, #48	; 0x30
    876c:	e5c32000 	strb	r2, [r3]
/mnt/c/user/privateWorkspace/School/OS/SP/KIV-RTOS/sources/stdlib/src/stdstring.cpp:24
        i++;
    8770:	e51b3008 	ldr	r3, [fp, #-8]
    8774:	e2833001 	add	r3, r3, #1
    8778:	e50b3008 	str	r3, [fp, #-8]
/mnt/c/user/privateWorkspace/School/OS/SP/KIV-RTOS/sources/stdlib/src/stdstring.cpp:27
    }

	output[i] = '\0';
    877c:	e51b3008 	ldr	r3, [fp, #-8]
    8780:	e51b201c 	ldr	r2, [fp, #-28]	; 0xffffffe4
    8784:	e0823003 	add	r3, r2, r3
    8788:	e3a02000 	mov	r2, #0
    878c:	e5c32000 	strb	r2, [r3]
/mnt/c/user/privateWorkspace/School/OS/SP/KIV-RTOS/sources/stdlib/src/stdstring.cpp:28
	i--;
    8790:	e51b3008 	ldr	r3, [fp, #-8]
    8794:	e2433001 	sub	r3, r3, #1
    8798:	e50b3008 	str	r3, [fp, #-8]
/mnt/c/user/privateWorkspace/School/OS/SP/KIV-RTOS/sources/stdlib/src/stdstring.cpp:30

	for (int j = 0; j <= i/2; j++)
    879c:	e3a03000 	mov	r3, #0
    87a0:	e50b300c 	str	r3, [fp, #-12]
/mnt/c/user/privateWorkspace/School/OS/SP/KIV-RTOS/sources/stdlib/src/stdstring.cpp:30 (discriminator 3)
    87a4:	e51b3008 	ldr	r3, [fp, #-8]
    87a8:	e1a02fa3 	lsr	r2, r3, #31
    87ac:	e0823003 	add	r3, r2, r3
    87b0:	e1a030c3 	asr	r3, r3, #1
    87b4:	e1a02003 	mov	r2, r3
    87b8:	e51b300c 	ldr	r3, [fp, #-12]
    87bc:	e1530002 	cmp	r3, r2
    87c0:	ca00001b 	bgt	8834 <_Z4itoajPcj+0x164>
/mnt/c/user/privateWorkspace/School/OS/SP/KIV-RTOS/sources/stdlib/src/stdstring.cpp:32 (discriminator 2)
	{
		char c = output[i - j];
    87c4:	e51b2008 	ldr	r2, [fp, #-8]
    87c8:	e51b300c 	ldr	r3, [fp, #-12]
    87cc:	e0423003 	sub	r3, r2, r3
    87d0:	e1a02003 	mov	r2, r3
    87d4:	e51b301c 	ldr	r3, [fp, #-28]	; 0xffffffe4
    87d8:	e0833002 	add	r3, r3, r2
    87dc:	e5d33000 	ldrb	r3, [r3]
    87e0:	e54b300d 	strb	r3, [fp, #-13]
/mnt/c/user/privateWorkspace/School/OS/SP/KIV-RTOS/sources/stdlib/src/stdstring.cpp:33 (discriminator 2)
		output[i - j] = output[j];
    87e4:	e51b300c 	ldr	r3, [fp, #-12]
    87e8:	e51b201c 	ldr	r2, [fp, #-28]	; 0xffffffe4
    87ec:	e0822003 	add	r2, r2, r3
    87f0:	e51b1008 	ldr	r1, [fp, #-8]
    87f4:	e51b300c 	ldr	r3, [fp, #-12]
    87f8:	e0413003 	sub	r3, r1, r3
    87fc:	e1a01003 	mov	r1, r3
    8800:	e51b301c 	ldr	r3, [fp, #-28]	; 0xffffffe4
    8804:	e0833001 	add	r3, r3, r1
    8808:	e5d22000 	ldrb	r2, [r2]
    880c:	e5c32000 	strb	r2, [r3]
/mnt/c/user/privateWorkspace/School/OS/SP/KIV-RTOS/sources/stdlib/src/stdstring.cpp:34 (discriminator 2)
		output[j] = c;
    8810:	e51b300c 	ldr	r3, [fp, #-12]
    8814:	e51b201c 	ldr	r2, [fp, #-28]	; 0xffffffe4
    8818:	e0823003 	add	r3, r2, r3
    881c:	e55b200d 	ldrb	r2, [fp, #-13]
    8820:	e5c32000 	strb	r2, [r3]
/mnt/c/user/privateWorkspace/School/OS/SP/KIV-RTOS/sources/stdlib/src/stdstring.cpp:30 (discriminator 2)
	for (int j = 0; j <= i/2; j++)
    8824:	e51b300c 	ldr	r3, [fp, #-12]
    8828:	e2833001 	add	r3, r3, #1
    882c:	e50b300c 	str	r3, [fp, #-12]
    8830:	eaffffdb 	b	87a4 <_Z4itoajPcj+0xd4>
/mnt/c/user/privateWorkspace/School/OS/SP/KIV-RTOS/sources/stdlib/src/stdstring.cpp:36
	}
}
    8834:	e320f000 	nop	{0}
    8838:	e24bd004 	sub	sp, fp, #4
    883c:	e8bd8800 	pop	{fp, pc}
    8840:	00009438 	andeq	r9, r0, r8, lsr r4

00008844 <_Z4atoiPKc>:
_Z4atoiPKc():
/mnt/c/user/privateWorkspace/School/OS/SP/KIV-RTOS/sources/stdlib/src/stdstring.cpp:39

int atoi(const char* input)
{
    8844:	e92d4800 	push	{fp, lr}
    8848:	e28db004 	add	fp, sp, #4
    884c:	e24dd010 	sub	sp, sp, #16
    8850:	e50b0010 	str	r0, [fp, #-16]
/mnt/c/user/privateWorkspace/School/OS/SP/KIV-RTOS/sources/stdlib/src/stdstring.cpp:40
	int output = 0;
    8854:	e3a03000 	mov	r3, #0
    8858:	e50b3008 	str	r3, [fp, #-8]
/mnt/c/user/privateWorkspace/School/OS/SP/KIV-RTOS/sources/stdlib/src/stdstring.cpp:42

  if (isnan(input, false)) {
    885c:	e3a01000 	mov	r1, #0
    8860:	e51b0010 	ldr	r0, [fp, #-16]
    8864:	eb000055 	bl	89c0 <_Z5isnanPKcb>
    8868:	e1a03000 	mov	r3, r0
    886c:	e3530000 	cmp	r3, #0
    8870:	0a000001 	beq	887c <_Z4atoiPKc+0x38>
/mnt/c/user/privateWorkspace/School/OS/SP/KIV-RTOS/sources/stdlib/src/stdstring.cpp:43
    return 0;
    8874:	e3a03000 	mov	r3, #0
    8878:	ea00001c 	b	88f0 <_Z4atoiPKc+0xac>
/mnt/c/user/privateWorkspace/School/OS/SP/KIV-RTOS/sources/stdlib/src/stdstring.cpp:46
  }

	while (*input != '\0')
    887c:	e51b3010 	ldr	r3, [fp, #-16]
    8880:	e5d33000 	ldrb	r3, [r3]
    8884:	e3530000 	cmp	r3, #0
    8888:	0a000017 	beq	88ec <_Z4atoiPKc+0xa8>
/mnt/c/user/privateWorkspace/School/OS/SP/KIV-RTOS/sources/stdlib/src/stdstring.cpp:48
	{
		output *= 10;
    888c:	e51b2008 	ldr	r2, [fp, #-8]
    8890:	e1a03002 	mov	r3, r2
    8894:	e1a03103 	lsl	r3, r3, #2
    8898:	e0833002 	add	r3, r3, r2
    889c:	e1a03083 	lsl	r3, r3, #1
    88a0:	e50b3008 	str	r3, [fp, #-8]
/mnt/c/user/privateWorkspace/School/OS/SP/KIV-RTOS/sources/stdlib/src/stdstring.cpp:49
		if (*input > '9' || *input < '0')
    88a4:	e51b3010 	ldr	r3, [fp, #-16]
    88a8:	e5d33000 	ldrb	r3, [r3]
    88ac:	e3530039 	cmp	r3, #57	; 0x39
    88b0:	8a00000d 	bhi	88ec <_Z4atoiPKc+0xa8>
/mnt/c/user/privateWorkspace/School/OS/SP/KIV-RTOS/sources/stdlib/src/stdstring.cpp:49 (discriminator 1)
    88b4:	e51b3010 	ldr	r3, [fp, #-16]
    88b8:	e5d33000 	ldrb	r3, [r3]
    88bc:	e353002f 	cmp	r3, #47	; 0x2f
    88c0:	9a000009 	bls	88ec <_Z4atoiPKc+0xa8>
/mnt/c/user/privateWorkspace/School/OS/SP/KIV-RTOS/sources/stdlib/src/stdstring.cpp:52
			break;

		output += *input - '0';
    88c4:	e51b3010 	ldr	r3, [fp, #-16]
    88c8:	e5d33000 	ldrb	r3, [r3]
    88cc:	e2433030 	sub	r3, r3, #48	; 0x30
    88d0:	e51b2008 	ldr	r2, [fp, #-8]
    88d4:	e0823003 	add	r3, r2, r3
    88d8:	e50b3008 	str	r3, [fp, #-8]
/mnt/c/user/privateWorkspace/School/OS/SP/KIV-RTOS/sources/stdlib/src/stdstring.cpp:54

		input++;
    88dc:	e51b3010 	ldr	r3, [fp, #-16]
    88e0:	e2833001 	add	r3, r3, #1
    88e4:	e50b3010 	str	r3, [fp, #-16]
/mnt/c/user/privateWorkspace/School/OS/SP/KIV-RTOS/sources/stdlib/src/stdstring.cpp:46
	while (*input != '\0')
    88e8:	eaffffe3 	b	887c <_Z4atoiPKc+0x38>
/mnt/c/user/privateWorkspace/School/OS/SP/KIV-RTOS/sources/stdlib/src/stdstring.cpp:57
	}

	return output;
    88ec:	e51b3008 	ldr	r3, [fp, #-8]
/mnt/c/user/privateWorkspace/School/OS/SP/KIV-RTOS/sources/stdlib/src/stdstring.cpp:58
}
    88f0:	e1a00003 	mov	r0, r3
    88f4:	e24bd004 	sub	sp, fp, #4
    88f8:	e8bd8800 	pop	{fp, pc}

000088fc <_Z9normalizePf>:
_Z9normalizePf():
/mnt/c/user/privateWorkspace/School/OS/SP/KIV-RTOS/sources/stdlib/src/stdstring.cpp:60

int normalize(float *val) {
    88fc:	e52db004 	push	{fp}		; (str fp, [sp, #-4]!)
    8900:	e28db000 	add	fp, sp, #0
    8904:	e24dd014 	sub	sp, sp, #20
    8908:	e50b0010 	str	r0, [fp, #-16]
/mnt/c/user/privateWorkspace/School/OS/SP/KIV-RTOS/sources/stdlib/src/stdstring.cpp:61
    int exponent = 0;
    890c:	e3a03000 	mov	r3, #0
    8910:	e50b3008 	str	r3, [fp, #-8]
/mnt/c/user/privateWorkspace/School/OS/SP/KIV-RTOS/sources/stdlib/src/stdstring.cpp:62
    float value = *val;
    8914:	e51b3010 	ldr	r3, [fp, #-16]
    8918:	e5933000 	ldr	r3, [r3]
    891c:	e50b300c 	str	r3, [fp, #-12]
/mnt/c/user/privateWorkspace/School/OS/SP/KIV-RTOS/sources/stdlib/src/stdstring.cpp:64

    while (value >= 1.0) {
    8920:	ed5b7a03 	vldr	s15, [fp, #-12]
    8924:	ed9f7a23 	vldr	s14, [pc, #140]	; 89b8 <_Z9normalizePf+0xbc>
    8928:	eef47ac7 	vcmpe.f32	s15, s14
    892c:	eef1fa10 	vmrs	APSR_nzcv, fpscr
    8930:	aa000000 	bge	8938 <_Z9normalizePf+0x3c>
    8934:	ea000007 	b	8958 <_Z9normalizePf+0x5c>
/mnt/c/user/privateWorkspace/School/OS/SP/KIV-RTOS/sources/stdlib/src/stdstring.cpp:65
        value = value / 10.0;
    8938:	ed1b7a03 	vldr	s14, [fp, #-12]
    893c:	eddf6a1e 	vldr	s13, [pc, #120]	; 89bc <_Z9normalizePf+0xc0>
    8940:	eec77a26 	vdiv.f32	s15, s14, s13
    8944:	ed4b7a03 	vstr	s15, [fp, #-12]
/mnt/c/user/privateWorkspace/School/OS/SP/KIV-RTOS/sources/stdlib/src/stdstring.cpp:66
        ++exponent;
    8948:	e51b3008 	ldr	r3, [fp, #-8]
    894c:	e2833001 	add	r3, r3, #1
    8950:	e50b3008 	str	r3, [fp, #-8]
/mnt/c/user/privateWorkspace/School/OS/SP/KIV-RTOS/sources/stdlib/src/stdstring.cpp:64
    while (value >= 1.0) {
    8954:	eafffff1 	b	8920 <_Z9normalizePf+0x24>
/mnt/c/user/privateWorkspace/School/OS/SP/KIV-RTOS/sources/stdlib/src/stdstring.cpp:69
    }

    while (value < 0.1) {
    8958:	ed5b7a03 	vldr	s15, [fp, #-12]
    895c:	eeb77ae7 	vcvt.f64.f32	d7, s15
    8960:	ed9f6b12 	vldr	d6, [pc, #72]	; 89b0 <_Z9normalizePf+0xb4>
    8964:	eeb47bc6 	vcmpe.f64	d7, d6
    8968:	eef1fa10 	vmrs	APSR_nzcv, fpscr
    896c:	5a000007 	bpl	8990 <_Z9normalizePf+0x94>
/mnt/c/user/privateWorkspace/School/OS/SP/KIV-RTOS/sources/stdlib/src/stdstring.cpp:70
        value = value * 10.0;
    8970:	ed5b7a03 	vldr	s15, [fp, #-12]
    8974:	ed9f7a10 	vldr	s14, [pc, #64]	; 89bc <_Z9normalizePf+0xc0>
    8978:	ee677a87 	vmul.f32	s15, s15, s14
    897c:	ed4b7a03 	vstr	s15, [fp, #-12]
/mnt/c/user/privateWorkspace/School/OS/SP/KIV-RTOS/sources/stdlib/src/stdstring.cpp:71
        --exponent;
    8980:	e51b3008 	ldr	r3, [fp, #-8]
    8984:	e2433001 	sub	r3, r3, #1
    8988:	e50b3008 	str	r3, [fp, #-8]
/mnt/c/user/privateWorkspace/School/OS/SP/KIV-RTOS/sources/stdlib/src/stdstring.cpp:69
    while (value < 0.1) {
    898c:	eafffff1 	b	8958 <_Z9normalizePf+0x5c>
/mnt/c/user/privateWorkspace/School/OS/SP/KIV-RTOS/sources/stdlib/src/stdstring.cpp:73
    }
    *val = value;
    8990:	e51b3010 	ldr	r3, [fp, #-16]
    8994:	e51b200c 	ldr	r2, [fp, #-12]
    8998:	e5832000 	str	r2, [r3]
/mnt/c/user/privateWorkspace/School/OS/SP/KIV-RTOS/sources/stdlib/src/stdstring.cpp:74
    return exponent;
    899c:	e51b3008 	ldr	r3, [fp, #-8]
/mnt/c/user/privateWorkspace/School/OS/SP/KIV-RTOS/sources/stdlib/src/stdstring.cpp:75
}
    89a0:	e1a00003 	mov	r0, r3
    89a4:	e28bd000 	add	sp, fp, #0
    89a8:	e49db004 	pop	{fp}		; (ldr fp, [sp], #4)
    89ac:	e12fff1e 	bx	lr
    89b0:	9999999a 	ldmibls	r9, {r1, r3, r4, r7, r8, fp, ip, pc}
    89b4:	3fb99999 	svccc	0x00b99999
    89b8:	3f800000 	svccc	0x00800000
    89bc:	41200000 			; <UNDEFINED> instruction: 0x41200000

000089c0 <_Z5isnanPKcb>:
_Z5isnanPKcb():
/mnt/c/user/privateWorkspace/School/OS/SP/KIV-RTOS/sources/stdlib/src/stdstring.cpp:78

bool isnan(const char *s, bool isFloat) 
{
    89c0:	e92d4800 	push	{fp, lr}
    89c4:	e28db004 	add	fp, sp, #4
    89c8:	e24dd018 	sub	sp, sp, #24
    89cc:	e50b0018 	str	r0, [fp, #-24]	; 0xffffffe8
    89d0:	e1a03001 	mov	r3, r1
    89d4:	e54b3019 	strb	r3, [fp, #-25]	; 0xffffffe7
/mnt/c/user/privateWorkspace/School/OS/SP/KIV-RTOS/sources/stdlib/src/stdstring.cpp:79
  int length = strlen(s);
    89d8:	e51b0018 	ldr	r0, [fp, #-24]	; 0xffffffe8
    89dc:	eb0001fa 	bl	91cc <_Z6strlenPKc>
    89e0:	e50b000c 	str	r0, [fp, #-12]
/mnt/c/user/privateWorkspace/School/OS/SP/KIV-RTOS/sources/stdlib/src/stdstring.cpp:80
  if (length == 0) {
    89e4:	e51b300c 	ldr	r3, [fp, #-12]
    89e8:	e3530000 	cmp	r3, #0
    89ec:	1a000001 	bne	89f8 <_Z5isnanPKcb+0x38>
/mnt/c/user/privateWorkspace/School/OS/SP/KIV-RTOS/sources/stdlib/src/stdstring.cpp:81
    return true;
    89f0:	e3a03001 	mov	r3, #1
    89f4:	ea000025 	b	8a90 <_Z5isnanPKcb+0xd0>
/mnt/c/user/privateWorkspace/School/OS/SP/KIV-RTOS/sources/stdlib/src/stdstring.cpp:84
  }

	for (int i = 0; i < strlen(s); i++) {
    89f8:	e3a03000 	mov	r3, #0
    89fc:	e50b3008 	str	r3, [fp, #-8]
/mnt/c/user/privateWorkspace/School/OS/SP/KIV-RTOS/sources/stdlib/src/stdstring.cpp:84 (discriminator 1)
    8a00:	e51b0018 	ldr	r0, [fp, #-24]	; 0xffffffe8
    8a04:	eb0001f0 	bl	91cc <_Z6strlenPKc>
    8a08:	e1a02000 	mov	r2, r0
    8a0c:	e51b3008 	ldr	r3, [fp, #-8]
    8a10:	e1530002 	cmp	r3, r2
    8a14:	b3a03001 	movlt	r3, #1
    8a18:	a3a03000 	movge	r3, #0
    8a1c:	e6ef3073 	uxtb	r3, r3
    8a20:	e3530000 	cmp	r3, #0
    8a24:	0a000018 	beq	8a8c <_Z5isnanPKcb+0xcc>
/mnt/c/user/privateWorkspace/School/OS/SP/KIV-RTOS/sources/stdlib/src/stdstring.cpp:85
		char c = s[i];
    8a28:	e51b3008 	ldr	r3, [fp, #-8]
    8a2c:	e51b2018 	ldr	r2, [fp, #-24]	; 0xffffffe8
    8a30:	e0823003 	add	r3, r2, r3
    8a34:	e5d33000 	ldrb	r3, [r3]
    8a38:	e54b300d 	strb	r3, [fp, #-13]
/mnt/c/user/privateWorkspace/School/OS/SP/KIV-RTOS/sources/stdlib/src/stdstring.cpp:86
		if ((c != 46 || !isFloat) && (c < 48 || c > 57 )) { //Pokud neni tecka (Kdyz kontrolujeme jen float cisla) a zaroven je mimo rozsah cislic, vyhod ze neni number
    8a3c:	e55b300d 	ldrb	r3, [fp, #-13]
    8a40:	e353002e 	cmp	r3, #46	; 0x2e
    8a44:	1a000004 	bne	8a5c <_Z5isnanPKcb+0x9c>
/mnt/c/user/privateWorkspace/School/OS/SP/KIV-RTOS/sources/stdlib/src/stdstring.cpp:86 (discriminator 2)
    8a48:	e55b3019 	ldrb	r3, [fp, #-25]	; 0xffffffe7
    8a4c:	e2233001 	eor	r3, r3, #1
    8a50:	e6ef3073 	uxtb	r3, r3
    8a54:	e3530000 	cmp	r3, #0
    8a58:	0a000007 	beq	8a7c <_Z5isnanPKcb+0xbc>
/mnt/c/user/privateWorkspace/School/OS/SP/KIV-RTOS/sources/stdlib/src/stdstring.cpp:86 (discriminator 3)
    8a5c:	e55b300d 	ldrb	r3, [fp, #-13]
    8a60:	e353002f 	cmp	r3, #47	; 0x2f
    8a64:	9a000002 	bls	8a74 <_Z5isnanPKcb+0xb4>
/mnt/c/user/privateWorkspace/School/OS/SP/KIV-RTOS/sources/stdlib/src/stdstring.cpp:86 (discriminator 4)
    8a68:	e55b300d 	ldrb	r3, [fp, #-13]
    8a6c:	e3530039 	cmp	r3, #57	; 0x39
    8a70:	9a000001 	bls	8a7c <_Z5isnanPKcb+0xbc>
/mnt/c/user/privateWorkspace/School/OS/SP/KIV-RTOS/sources/stdlib/src/stdstring.cpp:87
			return true;
    8a74:	e3a03001 	mov	r3, #1
    8a78:	ea000004 	b	8a90 <_Z5isnanPKcb+0xd0>
/mnt/c/user/privateWorkspace/School/OS/SP/KIV-RTOS/sources/stdlib/src/stdstring.cpp:84 (discriminator 2)
	for (int i = 0; i < strlen(s); i++) {
    8a7c:	e51b3008 	ldr	r3, [fp, #-8]
    8a80:	e2833001 	add	r3, r3, #1
    8a84:	e50b3008 	str	r3, [fp, #-8]
    8a88:	eaffffdc 	b	8a00 <_Z5isnanPKcb+0x40>
/mnt/c/user/privateWorkspace/School/OS/SP/KIV-RTOS/sources/stdlib/src/stdstring.cpp:91
		}
	}

	return false;
    8a8c:	e3a03000 	mov	r3, #0
/mnt/c/user/privateWorkspace/School/OS/SP/KIV-RTOS/sources/stdlib/src/stdstring.cpp:92
}
    8a90:	e1a00003 	mov	r0, r3
    8a94:	e24bd004 	sub	sp, fp, #4
    8a98:	e8bd8800 	pop	{fp, pc}

00008a9c <_Z4atofPKc>:
_Z4atofPKc():
/mnt/c/user/privateWorkspace/School/OS/SP/KIV-RTOS/sources/stdlib/src/stdstring.cpp:95

float atof(const char *s)
{
    8a9c:	e52db004 	push	{fp}		; (str fp, [sp, #-4]!)
    8aa0:	e28db000 	add	fp, sp, #0
    8aa4:	e24dd024 	sub	sp, sp, #36	; 0x24
    8aa8:	e50b0020 	str	r0, [fp, #-32]	; 0xffffffe0
/mnt/c/user/privateWorkspace/School/OS/SP/KIV-RTOS/sources/stdlib/src/stdstring.cpp:100
  // This function stolen from either Rolf Neugebauer or Andrew Tolmach. 
  // Probably Rolf.
  // -----------------------------------
  // I stole it from https://github.com/GaloisInc/minlibc/blob/master/atof.c
  float a = 0.0;
    8aac:	e3a03000 	mov	r3, #0
    8ab0:	e50b3008 	str	r3, [fp, #-8]
/mnt/c/user/privateWorkspace/School/OS/SP/KIV-RTOS/sources/stdlib/src/stdstring.cpp:101
  int e = 0;
    8ab4:	e3a03000 	mov	r3, #0
    8ab8:	e50b300c 	str	r3, [fp, #-12]
/mnt/c/user/privateWorkspace/School/OS/SP/KIV-RTOS/sources/stdlib/src/stdstring.cpp:103
  int c;
  while ((c = *s++) != '\0' && isdigit(c)) {
    8abc:	e51b3020 	ldr	r3, [fp, #-32]	; 0xffffffe0
    8ac0:	e2832001 	add	r2, r3, #1
    8ac4:	e50b2020 	str	r2, [fp, #-32]	; 0xffffffe0
    8ac8:	e5d33000 	ldrb	r3, [r3]
    8acc:	e50b3010 	str	r3, [fp, #-16]
    8ad0:	e51b3010 	ldr	r3, [fp, #-16]
    8ad4:	e3530000 	cmp	r3, #0
    8ad8:	0a000007 	beq	8afc <_Z4atofPKc+0x60>
/mnt/c/user/privateWorkspace/School/OS/SP/KIV-RTOS/sources/stdlib/src/stdstring.cpp:103 (discriminator 1)
    8adc:	e51b3010 	ldr	r3, [fp, #-16]
    8ae0:	e353002f 	cmp	r3, #47	; 0x2f
    8ae4:	da000004 	ble	8afc <_Z4atofPKc+0x60>
/mnt/c/user/privateWorkspace/School/OS/SP/KIV-RTOS/sources/stdlib/src/stdstring.cpp:103 (discriminator 3)
    8ae8:	e51b3010 	ldr	r3, [fp, #-16]
    8aec:	e3530039 	cmp	r3, #57	; 0x39
    8af0:	ca000001 	bgt	8afc <_Z4atofPKc+0x60>
/mnt/c/user/privateWorkspace/School/OS/SP/KIV-RTOS/sources/stdlib/src/stdstring.cpp:103 (discriminator 5)
    8af4:	e3a03001 	mov	r3, #1
    8af8:	ea000000 	b	8b00 <_Z4atofPKc+0x64>
/mnt/c/user/privateWorkspace/School/OS/SP/KIV-RTOS/sources/stdlib/src/stdstring.cpp:103 (discriminator 6)
    8afc:	e3a03000 	mov	r3, #0
/mnt/c/user/privateWorkspace/School/OS/SP/KIV-RTOS/sources/stdlib/src/stdstring.cpp:103 (discriminator 8)
    8b00:	e3530000 	cmp	r3, #0
    8b04:	0a00000b 	beq	8b38 <_Z4atofPKc+0x9c>
/mnt/c/user/privateWorkspace/School/OS/SP/KIV-RTOS/sources/stdlib/src/stdstring.cpp:104
    a = a*10.0 + (c - '0');
    8b08:	ed5b7a02 	vldr	s15, [fp, #-8]
    8b0c:	eeb77ae7 	vcvt.f64.f32	d7, s15
    8b10:	ed9f6b8a 	vldr	d6, [pc, #552]	; 8d40 <_Z4atofPKc+0x2a4>
    8b14:	ee276b06 	vmul.f64	d6, d7, d6
    8b18:	e51b3010 	ldr	r3, [fp, #-16]
    8b1c:	e2433030 	sub	r3, r3, #48	; 0x30
    8b20:	ee073a90 	vmov	s15, r3
    8b24:	eeb87be7 	vcvt.f64.s32	d7, s15
    8b28:	ee367b07 	vadd.f64	d7, d6, d7
    8b2c:	eef77bc7 	vcvt.f32.f64	s15, d7
    8b30:	ed4b7a02 	vstr	s15, [fp, #-8]
/mnt/c/user/privateWorkspace/School/OS/SP/KIV-RTOS/sources/stdlib/src/stdstring.cpp:103
  while ((c = *s++) != '\0' && isdigit(c)) {
    8b34:	eaffffe0 	b	8abc <_Z4atofPKc+0x20>
/mnt/c/user/privateWorkspace/School/OS/SP/KIV-RTOS/sources/stdlib/src/stdstring.cpp:106
  }
  if (c == '.') {
    8b38:	e51b3010 	ldr	r3, [fp, #-16]
    8b3c:	e353002e 	cmp	r3, #46	; 0x2e
    8b40:	1a000021 	bne	8bcc <_Z4atofPKc+0x130>
/mnt/c/user/privateWorkspace/School/OS/SP/KIV-RTOS/sources/stdlib/src/stdstring.cpp:107
    while ((c = *s++) != '\0' && isdigit(c)) {
    8b44:	e51b3020 	ldr	r3, [fp, #-32]	; 0xffffffe0
    8b48:	e2832001 	add	r2, r3, #1
    8b4c:	e50b2020 	str	r2, [fp, #-32]	; 0xffffffe0
    8b50:	e5d33000 	ldrb	r3, [r3]
    8b54:	e50b3010 	str	r3, [fp, #-16]
    8b58:	e51b3010 	ldr	r3, [fp, #-16]
    8b5c:	e3530000 	cmp	r3, #0
    8b60:	0a000007 	beq	8b84 <_Z4atofPKc+0xe8>
/mnt/c/user/privateWorkspace/School/OS/SP/KIV-RTOS/sources/stdlib/src/stdstring.cpp:107 (discriminator 1)
    8b64:	e51b3010 	ldr	r3, [fp, #-16]
    8b68:	e353002f 	cmp	r3, #47	; 0x2f
    8b6c:	da000004 	ble	8b84 <_Z4atofPKc+0xe8>
/mnt/c/user/privateWorkspace/School/OS/SP/KIV-RTOS/sources/stdlib/src/stdstring.cpp:107 (discriminator 3)
    8b70:	e51b3010 	ldr	r3, [fp, #-16]
    8b74:	e3530039 	cmp	r3, #57	; 0x39
    8b78:	ca000001 	bgt	8b84 <_Z4atofPKc+0xe8>
/mnt/c/user/privateWorkspace/School/OS/SP/KIV-RTOS/sources/stdlib/src/stdstring.cpp:107 (discriminator 5)
    8b7c:	e3a03001 	mov	r3, #1
    8b80:	ea000000 	b	8b88 <_Z4atofPKc+0xec>
/mnt/c/user/privateWorkspace/School/OS/SP/KIV-RTOS/sources/stdlib/src/stdstring.cpp:107 (discriminator 6)
    8b84:	e3a03000 	mov	r3, #0
/mnt/c/user/privateWorkspace/School/OS/SP/KIV-RTOS/sources/stdlib/src/stdstring.cpp:107 (discriminator 8)
    8b88:	e3530000 	cmp	r3, #0
    8b8c:	0a00000e 	beq	8bcc <_Z4atofPKc+0x130>
/mnt/c/user/privateWorkspace/School/OS/SP/KIV-RTOS/sources/stdlib/src/stdstring.cpp:108
      a = a*10.0 + (c - '0');
    8b90:	ed5b7a02 	vldr	s15, [fp, #-8]
    8b94:	eeb77ae7 	vcvt.f64.f32	d7, s15
    8b98:	ed9f6b68 	vldr	d6, [pc, #416]	; 8d40 <_Z4atofPKc+0x2a4>
    8b9c:	ee276b06 	vmul.f64	d6, d7, d6
    8ba0:	e51b3010 	ldr	r3, [fp, #-16]
    8ba4:	e2433030 	sub	r3, r3, #48	; 0x30
    8ba8:	ee073a90 	vmov	s15, r3
    8bac:	eeb87be7 	vcvt.f64.s32	d7, s15
    8bb0:	ee367b07 	vadd.f64	d7, d6, d7
    8bb4:	eef77bc7 	vcvt.f32.f64	s15, d7
    8bb8:	ed4b7a02 	vstr	s15, [fp, #-8]
/mnt/c/user/privateWorkspace/School/OS/SP/KIV-RTOS/sources/stdlib/src/stdstring.cpp:109
      e = e-1;
    8bbc:	e51b300c 	ldr	r3, [fp, #-12]
    8bc0:	e2433001 	sub	r3, r3, #1
    8bc4:	e50b300c 	str	r3, [fp, #-12]
/mnt/c/user/privateWorkspace/School/OS/SP/KIV-RTOS/sources/stdlib/src/stdstring.cpp:107
    while ((c = *s++) != '\0' && isdigit(c)) {
    8bc8:	eaffffdd 	b	8b44 <_Z4atofPKc+0xa8>
/mnt/c/user/privateWorkspace/School/OS/SP/KIV-RTOS/sources/stdlib/src/stdstring.cpp:112
    }
  }
  if (c == 'e' || c == 'E') {
    8bcc:	e51b3010 	ldr	r3, [fp, #-16]
    8bd0:	e3530065 	cmp	r3, #101	; 0x65
    8bd4:	0a000002 	beq	8be4 <_Z4atofPKc+0x148>
/mnt/c/user/privateWorkspace/School/OS/SP/KIV-RTOS/sources/stdlib/src/stdstring.cpp:112 (discriminator 1)
    8bd8:	e51b3010 	ldr	r3, [fp, #-16]
    8bdc:	e3530045 	cmp	r3, #69	; 0x45
    8be0:	1a000037 	bne	8cc4 <_Z4atofPKc+0x228>
/mnt/c/user/privateWorkspace/School/OS/SP/KIV-RTOS/sources/stdlib/src/stdstring.cpp:113
    int sign = 1;
    8be4:	e3a03001 	mov	r3, #1
    8be8:	e50b3014 	str	r3, [fp, #-20]	; 0xffffffec
/mnt/c/user/privateWorkspace/School/OS/SP/KIV-RTOS/sources/stdlib/src/stdstring.cpp:114
    int i = 0;
    8bec:	e3a03000 	mov	r3, #0
    8bf0:	e50b3018 	str	r3, [fp, #-24]	; 0xffffffe8
/mnt/c/user/privateWorkspace/School/OS/SP/KIV-RTOS/sources/stdlib/src/stdstring.cpp:115
    c = *s++;
    8bf4:	e51b3020 	ldr	r3, [fp, #-32]	; 0xffffffe0
    8bf8:	e2832001 	add	r2, r3, #1
    8bfc:	e50b2020 	str	r2, [fp, #-32]	; 0xffffffe0
    8c00:	e5d33000 	ldrb	r3, [r3]
    8c04:	e50b3010 	str	r3, [fp, #-16]
/mnt/c/user/privateWorkspace/School/OS/SP/KIV-RTOS/sources/stdlib/src/stdstring.cpp:116
    if (c == '+')
    8c08:	e51b3010 	ldr	r3, [fp, #-16]
    8c0c:	e353002b 	cmp	r3, #43	; 0x2b
    8c10:	1a000005 	bne	8c2c <_Z4atofPKc+0x190>
/mnt/c/user/privateWorkspace/School/OS/SP/KIV-RTOS/sources/stdlib/src/stdstring.cpp:117
      c = *s++;
    8c14:	e51b3020 	ldr	r3, [fp, #-32]	; 0xffffffe0
    8c18:	e2832001 	add	r2, r3, #1
    8c1c:	e50b2020 	str	r2, [fp, #-32]	; 0xffffffe0
    8c20:	e5d33000 	ldrb	r3, [r3]
    8c24:	e50b3010 	str	r3, [fp, #-16]
    8c28:	ea000009 	b	8c54 <_Z4atofPKc+0x1b8>
/mnt/c/user/privateWorkspace/School/OS/SP/KIV-RTOS/sources/stdlib/src/stdstring.cpp:118
    else if (c == '-') {
    8c2c:	e51b3010 	ldr	r3, [fp, #-16]
    8c30:	e353002d 	cmp	r3, #45	; 0x2d
    8c34:	1a000006 	bne	8c54 <_Z4atofPKc+0x1b8>
/mnt/c/user/privateWorkspace/School/OS/SP/KIV-RTOS/sources/stdlib/src/stdstring.cpp:119
      c = *s++;
    8c38:	e51b3020 	ldr	r3, [fp, #-32]	; 0xffffffe0
    8c3c:	e2832001 	add	r2, r3, #1
    8c40:	e50b2020 	str	r2, [fp, #-32]	; 0xffffffe0
    8c44:	e5d33000 	ldrb	r3, [r3]
    8c48:	e50b3010 	str	r3, [fp, #-16]
/mnt/c/user/privateWorkspace/School/OS/SP/KIV-RTOS/sources/stdlib/src/stdstring.cpp:120
      sign = -1;
    8c4c:	e3e03000 	mvn	r3, #0
    8c50:	e50b3014 	str	r3, [fp, #-20]	; 0xffffffec
/mnt/c/user/privateWorkspace/School/OS/SP/KIV-RTOS/sources/stdlib/src/stdstring.cpp:122
    }
    while (isdigit(c)) {
    8c54:	e51b3010 	ldr	r3, [fp, #-16]
    8c58:	e353002f 	cmp	r3, #47	; 0x2f
    8c5c:	da000012 	ble	8cac <_Z4atofPKc+0x210>
/mnt/c/user/privateWorkspace/School/OS/SP/KIV-RTOS/sources/stdlib/src/stdstring.cpp:122 (discriminator 1)
    8c60:	e51b3010 	ldr	r3, [fp, #-16]
    8c64:	e3530039 	cmp	r3, #57	; 0x39
    8c68:	ca00000f 	bgt	8cac <_Z4atofPKc+0x210>
/mnt/c/user/privateWorkspace/School/OS/SP/KIV-RTOS/sources/stdlib/src/stdstring.cpp:123
      i = i*10 + (c - '0');
    8c6c:	e51b2018 	ldr	r2, [fp, #-24]	; 0xffffffe8
    8c70:	e1a03002 	mov	r3, r2
    8c74:	e1a03103 	lsl	r3, r3, #2
    8c78:	e0833002 	add	r3, r3, r2
    8c7c:	e1a03083 	lsl	r3, r3, #1
    8c80:	e1a02003 	mov	r2, r3
    8c84:	e51b3010 	ldr	r3, [fp, #-16]
    8c88:	e2433030 	sub	r3, r3, #48	; 0x30
    8c8c:	e0823003 	add	r3, r2, r3
    8c90:	e50b3018 	str	r3, [fp, #-24]	; 0xffffffe8
/mnt/c/user/privateWorkspace/School/OS/SP/KIV-RTOS/sources/stdlib/src/stdstring.cpp:124
      c = *s++;
    8c94:	e51b3020 	ldr	r3, [fp, #-32]	; 0xffffffe0
    8c98:	e2832001 	add	r2, r3, #1
    8c9c:	e50b2020 	str	r2, [fp, #-32]	; 0xffffffe0
    8ca0:	e5d33000 	ldrb	r3, [r3]
    8ca4:	e50b3010 	str	r3, [fp, #-16]
/mnt/c/user/privateWorkspace/School/OS/SP/KIV-RTOS/sources/stdlib/src/stdstring.cpp:122
    while (isdigit(c)) {
    8ca8:	eaffffe9 	b	8c54 <_Z4atofPKc+0x1b8>
/mnt/c/user/privateWorkspace/School/OS/SP/KIV-RTOS/sources/stdlib/src/stdstring.cpp:126
    }
    e += i*sign;
    8cac:	e51b3018 	ldr	r3, [fp, #-24]	; 0xffffffe8
    8cb0:	e51b2014 	ldr	r2, [fp, #-20]	; 0xffffffec
    8cb4:	e0030392 	mul	r3, r2, r3
    8cb8:	e51b200c 	ldr	r2, [fp, #-12]
    8cbc:	e0823003 	add	r3, r2, r3
    8cc0:	e50b300c 	str	r3, [fp, #-12]
/mnt/c/user/privateWorkspace/School/OS/SP/KIV-RTOS/sources/stdlib/src/stdstring.cpp:128
  }
  while (e > 0) {
    8cc4:	e51b300c 	ldr	r3, [fp, #-12]
    8cc8:	e3530000 	cmp	r3, #0
    8ccc:	da000007 	ble	8cf0 <_Z4atofPKc+0x254>
/mnt/c/user/privateWorkspace/School/OS/SP/KIV-RTOS/sources/stdlib/src/stdstring.cpp:129
    a *= 10.0;
    8cd0:	ed5b7a02 	vldr	s15, [fp, #-8]
    8cd4:	ed9f7a1d 	vldr	s14, [pc, #116]	; 8d50 <_Z4atofPKc+0x2b4>
    8cd8:	ee677a87 	vmul.f32	s15, s15, s14
    8cdc:	ed4b7a02 	vstr	s15, [fp, #-8]
/mnt/c/user/privateWorkspace/School/OS/SP/KIV-RTOS/sources/stdlib/src/stdstring.cpp:130
    e--;
    8ce0:	e51b300c 	ldr	r3, [fp, #-12]
    8ce4:	e2433001 	sub	r3, r3, #1
    8ce8:	e50b300c 	str	r3, [fp, #-12]
/mnt/c/user/privateWorkspace/School/OS/SP/KIV-RTOS/sources/stdlib/src/stdstring.cpp:128
  while (e > 0) {
    8cec:	eafffff4 	b	8cc4 <_Z4atofPKc+0x228>
/mnt/c/user/privateWorkspace/School/OS/SP/KIV-RTOS/sources/stdlib/src/stdstring.cpp:132
  }
  while (e < 0) {
    8cf0:	e51b300c 	ldr	r3, [fp, #-12]
    8cf4:	e3530000 	cmp	r3, #0
    8cf8:	aa000009 	bge	8d24 <_Z4atofPKc+0x288>
/mnt/c/user/privateWorkspace/School/OS/SP/KIV-RTOS/sources/stdlib/src/stdstring.cpp:133
    a *= 0.1;
    8cfc:	ed5b7a02 	vldr	s15, [fp, #-8]
    8d00:	eeb77ae7 	vcvt.f64.f32	d7, s15
    8d04:	ed9f6b0f 	vldr	d6, [pc, #60]	; 8d48 <_Z4atofPKc+0x2ac>
    8d08:	ee277b06 	vmul.f64	d7, d7, d6
    8d0c:	eef77bc7 	vcvt.f32.f64	s15, d7
    8d10:	ed4b7a02 	vstr	s15, [fp, #-8]
/mnt/c/user/privateWorkspace/School/OS/SP/KIV-RTOS/sources/stdlib/src/stdstring.cpp:134
    e++;
    8d14:	e51b300c 	ldr	r3, [fp, #-12]
    8d18:	e2833001 	add	r3, r3, #1
    8d1c:	e50b300c 	str	r3, [fp, #-12]
/mnt/c/user/privateWorkspace/School/OS/SP/KIV-RTOS/sources/stdlib/src/stdstring.cpp:132
  while (e < 0) {
    8d20:	eafffff2 	b	8cf0 <_Z4atofPKc+0x254>
/mnt/c/user/privateWorkspace/School/OS/SP/KIV-RTOS/sources/stdlib/src/stdstring.cpp:136
  }
  return a;
    8d24:	e51b3008 	ldr	r3, [fp, #-8]
    8d28:	ee073a90 	vmov	s15, r3
/mnt/c/user/privateWorkspace/School/OS/SP/KIV-RTOS/sources/stdlib/src/stdstring.cpp:137
}
    8d2c:	eeb00a67 	vmov.f32	s0, s15
    8d30:	e28bd000 	add	sp, fp, #0
    8d34:	e49db004 	pop	{fp}		; (ldr fp, [sp], #4)
    8d38:	e12fff1e 	bx	lr
    8d3c:	e320f000 	nop	{0}
    8d40:	00000000 	andeq	r0, r0, r0
    8d44:	40240000 	eormi	r0, r4, r0
    8d48:	9999999a 	ldmibls	r9, {r1, r3, r4, r7, r8, fp, ip, pc}
    8d4c:	3fb99999 	svccc	0x00b99999
    8d50:	41200000 			; <UNDEFINED> instruction: 0x41200000

00008d54 <_Z4ftoaPcf>:
_Z4ftoaPcf():
/mnt/c/user/privateWorkspace/School/OS/SP/KIV-RTOS/sources/stdlib/src/stdstring.cpp:139

void ftoa(char *buffer, float value) {  
    8d54:	e92d4800 	push	{fp, lr}
    8d58:	e28db004 	add	fp, sp, #4
    8d5c:	e24dd020 	sub	sp, sp, #32
    8d60:	e50b0020 	str	r0, [fp, #-32]	; 0xffffffe0
    8d64:	ed0b0a09 	vstr	s0, [fp, #-36]	; 0xffffffdc
/mnt/c/user/privateWorkspace/School/OS/SP/KIV-RTOS/sources/stdlib/src/stdstring.cpp:148
     * The largest value we expect is an IEEE 754 double precision real, with maximum magnitude of approximately
     * e+308. The C standard requires an implementation to allow a single conversion to produce up to 512 
     * characters, so that's what we really expect as the buffer size.     
     */

    int exponent = 0;
    8d68:	e3a03000 	mov	r3, #0
    8d6c:	e50b3008 	str	r3, [fp, #-8]
/mnt/c/user/privateWorkspace/School/OS/SP/KIV-RTOS/sources/stdlib/src/stdstring.cpp:149
    int places = 0;
    8d70:	e3a03000 	mov	r3, #0
    8d74:	e50b300c 	str	r3, [fp, #-12]
/mnt/c/user/privateWorkspace/School/OS/SP/KIV-RTOS/sources/stdlib/src/stdstring.cpp:150
    const int width = 6;
    8d78:	e3a03006 	mov	r3, #6
    8d7c:	e50b3010 	str	r3, [fp, #-16]
/mnt/c/user/privateWorkspace/School/OS/SP/KIV-RTOS/sources/stdlib/src/stdstring.cpp:152

    if (value == 0.0) {
    8d80:	ed5b7a09 	vldr	s15, [fp, #-36]	; 0xffffffdc
    8d84:	eef57a40 	vcmp.f32	s15, #0.0
    8d88:	eef1fa10 	vmrs	APSR_nzcv, fpscr
    8d8c:	1a000007 	bne	8db0 <_Z4ftoaPcf+0x5c>
/mnt/c/user/privateWorkspace/School/OS/SP/KIV-RTOS/sources/stdlib/src/stdstring.cpp:153
        buffer[0] = '0';
    8d90:	e51b3020 	ldr	r3, [fp, #-32]	; 0xffffffe0
    8d94:	e3a02030 	mov	r2, #48	; 0x30
    8d98:	e5c32000 	strb	r2, [r3]
/mnt/c/user/privateWorkspace/School/OS/SP/KIV-RTOS/sources/stdlib/src/stdstring.cpp:154
        buffer[1] = '\0';
    8d9c:	e51b3020 	ldr	r3, [fp, #-32]	; 0xffffffe0
    8da0:	e2833001 	add	r3, r3, #1
    8da4:	e3a02000 	mov	r2, #0
    8da8:	e5c32000 	strb	r2, [r3]
/mnt/c/user/privateWorkspace/School/OS/SP/KIV-RTOS/sources/stdlib/src/stdstring.cpp:155
        return;
    8dac:	ea000071 	b	8f78 <_Z4ftoaPcf+0x224>
/mnt/c/user/privateWorkspace/School/OS/SP/KIV-RTOS/sources/stdlib/src/stdstring.cpp:158
    } 

    if (value < 0.0) {
    8db0:	ed5b7a09 	vldr	s15, [fp, #-36]	; 0xffffffdc
    8db4:	eef57ac0 	vcmpe.f32	s15, #0.0
    8db8:	eef1fa10 	vmrs	APSR_nzcv, fpscr
    8dbc:	5a000007 	bpl	8de0 <_Z4ftoaPcf+0x8c>
/mnt/c/user/privateWorkspace/School/OS/SP/KIV-RTOS/sources/stdlib/src/stdstring.cpp:159
        *buffer++ = '-';
    8dc0:	e51b3020 	ldr	r3, [fp, #-32]	; 0xffffffe0
    8dc4:	e2832001 	add	r2, r3, #1
    8dc8:	e50b2020 	str	r2, [fp, #-32]	; 0xffffffe0
    8dcc:	e3a0202d 	mov	r2, #45	; 0x2d
    8dd0:	e5c32000 	strb	r2, [r3]
/mnt/c/user/privateWorkspace/School/OS/SP/KIV-RTOS/sources/stdlib/src/stdstring.cpp:160
        value = -value;
    8dd4:	ed5b7a09 	vldr	s15, [fp, #-36]	; 0xffffffdc
    8dd8:	eef17a67 	vneg.f32	s15, s15
    8ddc:	ed4b7a09 	vstr	s15, [fp, #-36]	; 0xffffffdc
/mnt/c/user/privateWorkspace/School/OS/SP/KIV-RTOS/sources/stdlib/src/stdstring.cpp:163
    }

    exponent = normalize(&value);
    8de0:	e24b3024 	sub	r3, fp, #36	; 0x24
    8de4:	e1a00003 	mov	r0, r3
    8de8:	ebfffec3 	bl	88fc <_Z9normalizePf>
    8dec:	e50b0008 	str	r0, [fp, #-8]
/mnt/c/user/privateWorkspace/School/OS/SP/KIV-RTOS/sources/stdlib/src/stdstring.cpp:165

    while (exponent > 0) {
    8df0:	e51b3008 	ldr	r3, [fp, #-8]
    8df4:	e3530000 	cmp	r3, #0
    8df8:	da00001c 	ble	8e70 <_Z4ftoaPcf+0x11c>
/mnt/c/user/privateWorkspace/School/OS/SP/KIV-RTOS/sources/stdlib/src/stdstring.cpp:166
        int digit = value * 10;
    8dfc:	ed5b7a09 	vldr	s15, [fp, #-36]	; 0xffffffdc
    8e00:	ed9f7a60 	vldr	s14, [pc, #384]	; 8f88 <_Z4ftoaPcf+0x234>
    8e04:	ee677a87 	vmul.f32	s15, s15, s14
    8e08:	eefd7ae7 	vcvt.s32.f32	s15, s15
    8e0c:	ee173a90 	vmov	r3, s15
    8e10:	e50b3014 	str	r3, [fp, #-20]	; 0xffffffec
/mnt/c/user/privateWorkspace/School/OS/SP/KIV-RTOS/sources/stdlib/src/stdstring.cpp:167
        *buffer++ = digit + '0';
    8e14:	e51b3014 	ldr	r3, [fp, #-20]	; 0xffffffec
    8e18:	e6ef2073 	uxtb	r2, r3
    8e1c:	e51b3020 	ldr	r3, [fp, #-32]	; 0xffffffe0
    8e20:	e2831001 	add	r1, r3, #1
    8e24:	e50b1020 	str	r1, [fp, #-32]	; 0xffffffe0
    8e28:	e2822030 	add	r2, r2, #48	; 0x30
    8e2c:	e6ef2072 	uxtb	r2, r2
    8e30:	e5c32000 	strb	r2, [r3]
/mnt/c/user/privateWorkspace/School/OS/SP/KIV-RTOS/sources/stdlib/src/stdstring.cpp:168
        value = value * 10 - digit;
    8e34:	ed5b7a09 	vldr	s15, [fp, #-36]	; 0xffffffdc
    8e38:	ed9f7a52 	vldr	s14, [pc, #328]	; 8f88 <_Z4ftoaPcf+0x234>
    8e3c:	ee277a87 	vmul.f32	s14, s15, s14
    8e40:	e51b3014 	ldr	r3, [fp, #-20]	; 0xffffffec
    8e44:	ee073a90 	vmov	s15, r3
    8e48:	eef87ae7 	vcvt.f32.s32	s15, s15
    8e4c:	ee777a67 	vsub.f32	s15, s14, s15
    8e50:	ed4b7a09 	vstr	s15, [fp, #-36]	; 0xffffffdc
/mnt/c/user/privateWorkspace/School/OS/SP/KIV-RTOS/sources/stdlib/src/stdstring.cpp:169
        ++places;
    8e54:	e51b300c 	ldr	r3, [fp, #-12]
    8e58:	e2833001 	add	r3, r3, #1
    8e5c:	e50b300c 	str	r3, [fp, #-12]
/mnt/c/user/privateWorkspace/School/OS/SP/KIV-RTOS/sources/stdlib/src/stdstring.cpp:170
        --exponent;
    8e60:	e51b3008 	ldr	r3, [fp, #-8]
    8e64:	e2433001 	sub	r3, r3, #1
    8e68:	e50b3008 	str	r3, [fp, #-8]
/mnt/c/user/privateWorkspace/School/OS/SP/KIV-RTOS/sources/stdlib/src/stdstring.cpp:165
    while (exponent > 0) {
    8e6c:	eaffffdf 	b	8df0 <_Z4ftoaPcf+0x9c>
/mnt/c/user/privateWorkspace/School/OS/SP/KIV-RTOS/sources/stdlib/src/stdstring.cpp:173
    }

    if (places == 0)
    8e70:	e51b300c 	ldr	r3, [fp, #-12]
    8e74:	e3530000 	cmp	r3, #0
    8e78:	1a000004 	bne	8e90 <_Z4ftoaPcf+0x13c>
/mnt/c/user/privateWorkspace/School/OS/SP/KIV-RTOS/sources/stdlib/src/stdstring.cpp:174
        *buffer++ = '0';
    8e7c:	e51b3020 	ldr	r3, [fp, #-32]	; 0xffffffe0
    8e80:	e2832001 	add	r2, r3, #1
    8e84:	e50b2020 	str	r2, [fp, #-32]	; 0xffffffe0
    8e88:	e3a02030 	mov	r2, #48	; 0x30
    8e8c:	e5c32000 	strb	r2, [r3]
/mnt/c/user/privateWorkspace/School/OS/SP/KIV-RTOS/sources/stdlib/src/stdstring.cpp:176

    *buffer++ = '.';
    8e90:	e51b3020 	ldr	r3, [fp, #-32]	; 0xffffffe0
    8e94:	e2832001 	add	r2, r3, #1
    8e98:	e50b2020 	str	r2, [fp, #-32]	; 0xffffffe0
    8e9c:	e3a0202e 	mov	r2, #46	; 0x2e
    8ea0:	e5c32000 	strb	r2, [r3]
/mnt/c/user/privateWorkspace/School/OS/SP/KIV-RTOS/sources/stdlib/src/stdstring.cpp:178

    while (exponent < 0 && places < width) {
    8ea4:	e51b3008 	ldr	r3, [fp, #-8]
    8ea8:	e3530000 	cmp	r3, #0
    8eac:	aa00000e 	bge	8eec <_Z4ftoaPcf+0x198>
/mnt/c/user/privateWorkspace/School/OS/SP/KIV-RTOS/sources/stdlib/src/stdstring.cpp:178 (discriminator 1)
    8eb0:	e51b300c 	ldr	r3, [fp, #-12]
    8eb4:	e3530005 	cmp	r3, #5
    8eb8:	ca00000b 	bgt	8eec <_Z4ftoaPcf+0x198>
/mnt/c/user/privateWorkspace/School/OS/SP/KIV-RTOS/sources/stdlib/src/stdstring.cpp:179
        *buffer++ = '0';
    8ebc:	e51b3020 	ldr	r3, [fp, #-32]	; 0xffffffe0
    8ec0:	e2832001 	add	r2, r3, #1
    8ec4:	e50b2020 	str	r2, [fp, #-32]	; 0xffffffe0
    8ec8:	e3a02030 	mov	r2, #48	; 0x30
    8ecc:	e5c32000 	strb	r2, [r3]
/mnt/c/user/privateWorkspace/School/OS/SP/KIV-RTOS/sources/stdlib/src/stdstring.cpp:180
        --exponent;
    8ed0:	e51b3008 	ldr	r3, [fp, #-8]
    8ed4:	e2433001 	sub	r3, r3, #1
    8ed8:	e50b3008 	str	r3, [fp, #-8]
/mnt/c/user/privateWorkspace/School/OS/SP/KIV-RTOS/sources/stdlib/src/stdstring.cpp:181
        ++places;
    8edc:	e51b300c 	ldr	r3, [fp, #-12]
    8ee0:	e2833001 	add	r3, r3, #1
    8ee4:	e50b300c 	str	r3, [fp, #-12]
/mnt/c/user/privateWorkspace/School/OS/SP/KIV-RTOS/sources/stdlib/src/stdstring.cpp:178
    while (exponent < 0 && places < width) {
    8ee8:	eaffffed 	b	8ea4 <_Z4ftoaPcf+0x150>
/mnt/c/user/privateWorkspace/School/OS/SP/KIV-RTOS/sources/stdlib/src/stdstring.cpp:184
    }

    while (places < width) {
    8eec:	e51b300c 	ldr	r3, [fp, #-12]
    8ef0:	e3530005 	cmp	r3, #5
    8ef4:	ca00001c 	bgt	8f6c <_Z4ftoaPcf+0x218>
/mnt/c/user/privateWorkspace/School/OS/SP/KIV-RTOS/sources/stdlib/src/stdstring.cpp:185
        int digit = value * 10.0;
    8ef8:	ed5b7a09 	vldr	s15, [fp, #-36]	; 0xffffffdc
    8efc:	eeb77ae7 	vcvt.f64.f32	d7, s15
    8f00:	ed9f6b1e 	vldr	d6, [pc, #120]	; 8f80 <_Z4ftoaPcf+0x22c>
    8f04:	ee277b06 	vmul.f64	d7, d7, d6
    8f08:	eefd7bc7 	vcvt.s32.f64	s15, d7
    8f0c:	ee173a90 	vmov	r3, s15
    8f10:	e50b3018 	str	r3, [fp, #-24]	; 0xffffffe8
/mnt/c/user/privateWorkspace/School/OS/SP/KIV-RTOS/sources/stdlib/src/stdstring.cpp:186
        *buffer++ = digit + '0';
    8f14:	e51b3018 	ldr	r3, [fp, #-24]	; 0xffffffe8
    8f18:	e6ef2073 	uxtb	r2, r3
    8f1c:	e51b3020 	ldr	r3, [fp, #-32]	; 0xffffffe0
    8f20:	e2831001 	add	r1, r3, #1
    8f24:	e50b1020 	str	r1, [fp, #-32]	; 0xffffffe0
    8f28:	e2822030 	add	r2, r2, #48	; 0x30
    8f2c:	e6ef2072 	uxtb	r2, r2
    8f30:	e5c32000 	strb	r2, [r3]
/mnt/c/user/privateWorkspace/School/OS/SP/KIV-RTOS/sources/stdlib/src/stdstring.cpp:187
        value = value * 10.0 - digit;
    8f34:	ed5b7a09 	vldr	s15, [fp, #-36]	; 0xffffffdc
    8f38:	eeb77ae7 	vcvt.f64.f32	d7, s15
    8f3c:	ed9f6b0f 	vldr	d6, [pc, #60]	; 8f80 <_Z4ftoaPcf+0x22c>
    8f40:	ee276b06 	vmul.f64	d6, d7, d6
    8f44:	e51b3018 	ldr	r3, [fp, #-24]	; 0xffffffe8
    8f48:	ee073a90 	vmov	s15, r3
    8f4c:	eeb87be7 	vcvt.f64.s32	d7, s15
    8f50:	ee367b47 	vsub.f64	d7, d6, d7
    8f54:	eef77bc7 	vcvt.f32.f64	s15, d7
    8f58:	ed4b7a09 	vstr	s15, [fp, #-36]	; 0xffffffdc
/mnt/c/user/privateWorkspace/School/OS/SP/KIV-RTOS/sources/stdlib/src/stdstring.cpp:188
        ++places;
    8f5c:	e51b300c 	ldr	r3, [fp, #-12]
    8f60:	e2833001 	add	r3, r3, #1
    8f64:	e50b300c 	str	r3, [fp, #-12]
/mnt/c/user/privateWorkspace/School/OS/SP/KIV-RTOS/sources/stdlib/src/stdstring.cpp:184
    while (places < width) {
    8f68:	eaffffdf 	b	8eec <_Z4ftoaPcf+0x198>
/mnt/c/user/privateWorkspace/School/OS/SP/KIV-RTOS/sources/stdlib/src/stdstring.cpp:190
    }
    *buffer = '\0';
    8f6c:	e51b3020 	ldr	r3, [fp, #-32]	; 0xffffffe0
    8f70:	e3a02000 	mov	r2, #0
    8f74:	e5c32000 	strb	r2, [r3]
/mnt/c/user/privateWorkspace/School/OS/SP/KIV-RTOS/sources/stdlib/src/stdstring.cpp:191
}
    8f78:	e24bd004 	sub	sp, fp, #4
    8f7c:	e8bd8800 	pop	{fp, pc}
    8f80:	00000000 	andeq	r0, r0, r0
    8f84:	40240000 	eormi	r0, r4, r0
    8f88:	41200000 			; <UNDEFINED> instruction: 0x41200000

00008f8c <_Z7strncpyPcPKci>:
_Z7strncpyPcPKci():
/mnt/c/user/privateWorkspace/School/OS/SP/KIV-RTOS/sources/stdlib/src/stdstring.cpp:194

char* strncpy(char* dest, const char *src, int num)
{
    8f8c:	e52db004 	push	{fp}		; (str fp, [sp, #-4]!)
    8f90:	e28db000 	add	fp, sp, #0
    8f94:	e24dd01c 	sub	sp, sp, #28
    8f98:	e50b0010 	str	r0, [fp, #-16]
    8f9c:	e50b1014 	str	r1, [fp, #-20]	; 0xffffffec
    8fa0:	e50b2018 	str	r2, [fp, #-24]	; 0xffffffe8
/mnt/c/user/privateWorkspace/School/OS/SP/KIV-RTOS/sources/stdlib/src/stdstring.cpp:197
	int i;

	for (i = 0; i < num && src[i] != '\0'; i++)
    8fa4:	e3a03000 	mov	r3, #0
    8fa8:	e50b3008 	str	r3, [fp, #-8]
/mnt/c/user/privateWorkspace/School/OS/SP/KIV-RTOS/sources/stdlib/src/stdstring.cpp:197 (discriminator 4)
    8fac:	e51b2008 	ldr	r2, [fp, #-8]
    8fb0:	e51b3018 	ldr	r3, [fp, #-24]	; 0xffffffe8
    8fb4:	e1520003 	cmp	r2, r3
    8fb8:	aa000011 	bge	9004 <_Z7strncpyPcPKci+0x78>
/mnt/c/user/privateWorkspace/School/OS/SP/KIV-RTOS/sources/stdlib/src/stdstring.cpp:197 (discriminator 2)
    8fbc:	e51b3008 	ldr	r3, [fp, #-8]
    8fc0:	e51b2014 	ldr	r2, [fp, #-20]	; 0xffffffec
    8fc4:	e0823003 	add	r3, r2, r3
    8fc8:	e5d33000 	ldrb	r3, [r3]
    8fcc:	e3530000 	cmp	r3, #0
    8fd0:	0a00000b 	beq	9004 <_Z7strncpyPcPKci+0x78>
/mnt/c/user/privateWorkspace/School/OS/SP/KIV-RTOS/sources/stdlib/src/stdstring.cpp:198 (discriminator 3)
		dest[i] = src[i];
    8fd4:	e51b3008 	ldr	r3, [fp, #-8]
    8fd8:	e51b2014 	ldr	r2, [fp, #-20]	; 0xffffffec
    8fdc:	e0822003 	add	r2, r2, r3
    8fe0:	e51b3008 	ldr	r3, [fp, #-8]
    8fe4:	e51b1010 	ldr	r1, [fp, #-16]
    8fe8:	e0813003 	add	r3, r1, r3
    8fec:	e5d22000 	ldrb	r2, [r2]
    8ff0:	e5c32000 	strb	r2, [r3]
/mnt/c/user/privateWorkspace/School/OS/SP/KIV-RTOS/sources/stdlib/src/stdstring.cpp:197 (discriminator 3)
	for (i = 0; i < num && src[i] != '\0'; i++)
    8ff4:	e51b3008 	ldr	r3, [fp, #-8]
    8ff8:	e2833001 	add	r3, r3, #1
    8ffc:	e50b3008 	str	r3, [fp, #-8]
    9000:	eaffffe9 	b	8fac <_Z7strncpyPcPKci+0x20>
/mnt/c/user/privateWorkspace/School/OS/SP/KIV-RTOS/sources/stdlib/src/stdstring.cpp:199 (discriminator 2)
	for (; i < num; i++)
    9004:	e51b2008 	ldr	r2, [fp, #-8]
    9008:	e51b3018 	ldr	r3, [fp, #-24]	; 0xffffffe8
    900c:	e1520003 	cmp	r2, r3
    9010:	aa000008 	bge	9038 <_Z7strncpyPcPKci+0xac>
/mnt/c/user/privateWorkspace/School/OS/SP/KIV-RTOS/sources/stdlib/src/stdstring.cpp:200 (discriminator 1)
		dest[i] = '\0';
    9014:	e51b3008 	ldr	r3, [fp, #-8]
    9018:	e51b2010 	ldr	r2, [fp, #-16]
    901c:	e0823003 	add	r3, r2, r3
    9020:	e3a02000 	mov	r2, #0
    9024:	e5c32000 	strb	r2, [r3]
/mnt/c/user/privateWorkspace/School/OS/SP/KIV-RTOS/sources/stdlib/src/stdstring.cpp:199 (discriminator 1)
	for (; i < num; i++)
    9028:	e51b3008 	ldr	r3, [fp, #-8]
    902c:	e2833001 	add	r3, r3, #1
    9030:	e50b3008 	str	r3, [fp, #-8]
    9034:	eafffff2 	b	9004 <_Z7strncpyPcPKci+0x78>
/mnt/c/user/privateWorkspace/School/OS/SP/KIV-RTOS/sources/stdlib/src/stdstring.cpp:202

   return dest;
    9038:	e51b3010 	ldr	r3, [fp, #-16]
/mnt/c/user/privateWorkspace/School/OS/SP/KIV-RTOS/sources/stdlib/src/stdstring.cpp:203
}
    903c:	e1a00003 	mov	r0, r3
    9040:	e28bd000 	add	sp, fp, #0
    9044:	e49db004 	pop	{fp}		; (ldr fp, [sp], #4)
    9048:	e12fff1e 	bx	lr

0000904c <_Z6strcatPcPKc>:
_Z6strcatPcPKc():
/mnt/c/user/privateWorkspace/School/OS/SP/KIV-RTOS/sources/stdlib/src/stdstring.cpp:206

char* strcat(char *dest, const char *src)
{
    904c:	e52db004 	push	{fp}		; (str fp, [sp, #-4]!)
    9050:	e28db000 	add	fp, sp, #0
    9054:	e24dd014 	sub	sp, sp, #20
    9058:	e50b0010 	str	r0, [fp, #-16]
    905c:	e50b1014 	str	r1, [fp, #-20]	; 0xffffffec
/mnt/c/user/privateWorkspace/School/OS/SP/KIV-RTOS/sources/stdlib/src/stdstring.cpp:209
    int i,j;

    for (i = 0; dest[i] != '\0'; i++)
    9060:	e3a03000 	mov	r3, #0
    9064:	e50b3008 	str	r3, [fp, #-8]
/mnt/c/user/privateWorkspace/School/OS/SP/KIV-RTOS/sources/stdlib/src/stdstring.cpp:209 (discriminator 3)
    9068:	e51b3008 	ldr	r3, [fp, #-8]
    906c:	e51b2010 	ldr	r2, [fp, #-16]
    9070:	e0823003 	add	r3, r2, r3
    9074:	e5d33000 	ldrb	r3, [r3]
    9078:	e3530000 	cmp	r3, #0
    907c:	0a000003 	beq	9090 <_Z6strcatPcPKc+0x44>
/mnt/c/user/privateWorkspace/School/OS/SP/KIV-RTOS/sources/stdlib/src/stdstring.cpp:209 (discriminator 2)
    9080:	e51b3008 	ldr	r3, [fp, #-8]
    9084:	e2833001 	add	r3, r3, #1
    9088:	e50b3008 	str	r3, [fp, #-8]
    908c:	eafffff5 	b	9068 <_Z6strcatPcPKc+0x1c>
/mnt/c/user/privateWorkspace/School/OS/SP/KIV-RTOS/sources/stdlib/src/stdstring.cpp:211
        ;
    for (j = 0; src[j] != '\0'; j++)
    9090:	e3a03000 	mov	r3, #0
    9094:	e50b300c 	str	r3, [fp, #-12]
/mnt/c/user/privateWorkspace/School/OS/SP/KIV-RTOS/sources/stdlib/src/stdstring.cpp:211 (discriminator 3)
    9098:	e51b300c 	ldr	r3, [fp, #-12]
    909c:	e51b2014 	ldr	r2, [fp, #-20]	; 0xffffffec
    90a0:	e0823003 	add	r3, r2, r3
    90a4:	e5d33000 	ldrb	r3, [r3]
    90a8:	e3530000 	cmp	r3, #0
    90ac:	0a00000e 	beq	90ec <_Z6strcatPcPKc+0xa0>
/mnt/c/user/privateWorkspace/School/OS/SP/KIV-RTOS/sources/stdlib/src/stdstring.cpp:212 (discriminator 2)
        dest[i+j] = src[j];
    90b0:	e51b300c 	ldr	r3, [fp, #-12]
    90b4:	e51b2014 	ldr	r2, [fp, #-20]	; 0xffffffec
    90b8:	e0822003 	add	r2, r2, r3
    90bc:	e51b1008 	ldr	r1, [fp, #-8]
    90c0:	e51b300c 	ldr	r3, [fp, #-12]
    90c4:	e0813003 	add	r3, r1, r3
    90c8:	e1a01003 	mov	r1, r3
    90cc:	e51b3010 	ldr	r3, [fp, #-16]
    90d0:	e0833001 	add	r3, r3, r1
    90d4:	e5d22000 	ldrb	r2, [r2]
    90d8:	e5c32000 	strb	r2, [r3]
/mnt/c/user/privateWorkspace/School/OS/SP/KIV-RTOS/sources/stdlib/src/stdstring.cpp:211 (discriminator 2)
    for (j = 0; src[j] != '\0'; j++)
    90dc:	e51b300c 	ldr	r3, [fp, #-12]
    90e0:	e2833001 	add	r3, r3, #1
    90e4:	e50b300c 	str	r3, [fp, #-12]
    90e8:	eaffffea 	b	9098 <_Z6strcatPcPKc+0x4c>
/mnt/c/user/privateWorkspace/School/OS/SP/KIV-RTOS/sources/stdlib/src/stdstring.cpp:214

    dest[i+j] = '\0';
    90ec:	e51b2008 	ldr	r2, [fp, #-8]
    90f0:	e51b300c 	ldr	r3, [fp, #-12]
    90f4:	e0823003 	add	r3, r2, r3
    90f8:	e1a02003 	mov	r2, r3
    90fc:	e51b3010 	ldr	r3, [fp, #-16]
    9100:	e0833002 	add	r3, r3, r2
    9104:	e3a02000 	mov	r2, #0
    9108:	e5c32000 	strb	r2, [r3]
/mnt/c/user/privateWorkspace/School/OS/SP/KIV-RTOS/sources/stdlib/src/stdstring.cpp:216
	
    return dest;
    910c:	e51b3010 	ldr	r3, [fp, #-16]
/mnt/c/user/privateWorkspace/School/OS/SP/KIV-RTOS/sources/stdlib/src/stdstring.cpp:217
}
    9110:	e1a00003 	mov	r0, r3
    9114:	e28bd000 	add	sp, fp, #0
    9118:	e49db004 	pop	{fp}		; (ldr fp, [sp], #4)
    911c:	e12fff1e 	bx	lr

00009120 <_Z7strncmpPKcS0_i>:
_Z7strncmpPKcS0_i():
/mnt/c/user/privateWorkspace/School/OS/SP/KIV-RTOS/sources/stdlib/src/stdstring.cpp:220

int strncmp(const char *s1, const char *s2, int num)
{
    9120:	e52db004 	push	{fp}		; (str fp, [sp, #-4]!)
    9124:	e28db000 	add	fp, sp, #0
    9128:	e24dd01c 	sub	sp, sp, #28
    912c:	e50b0010 	str	r0, [fp, #-16]
    9130:	e50b1014 	str	r1, [fp, #-20]	; 0xffffffec
    9134:	e50b2018 	str	r2, [fp, #-24]	; 0xffffffe8
/mnt/c/user/privateWorkspace/School/OS/SP/KIV-RTOS/sources/stdlib/src/stdstring.cpp:222
	unsigned char u1, u2;
  	while (num-- > 0)
    9138:	e51b3018 	ldr	r3, [fp, #-24]	; 0xffffffe8
    913c:	e2432001 	sub	r2, r3, #1
    9140:	e50b2018 	str	r2, [fp, #-24]	; 0xffffffe8
    9144:	e3530000 	cmp	r3, #0
    9148:	c3a03001 	movgt	r3, #1
    914c:	d3a03000 	movle	r3, #0
    9150:	e6ef3073 	uxtb	r3, r3
    9154:	e3530000 	cmp	r3, #0
    9158:	0a000016 	beq	91b8 <_Z7strncmpPKcS0_i+0x98>
/mnt/c/user/privateWorkspace/School/OS/SP/KIV-RTOS/sources/stdlib/src/stdstring.cpp:224
    {
      	u1 = (unsigned char) *s1++;
    915c:	e51b3010 	ldr	r3, [fp, #-16]
    9160:	e2832001 	add	r2, r3, #1
    9164:	e50b2010 	str	r2, [fp, #-16]
    9168:	e5d33000 	ldrb	r3, [r3]
    916c:	e54b3005 	strb	r3, [fp, #-5]
/mnt/c/user/privateWorkspace/School/OS/SP/KIV-RTOS/sources/stdlib/src/stdstring.cpp:225
     	u2 = (unsigned char) *s2++;
    9170:	e51b3014 	ldr	r3, [fp, #-20]	; 0xffffffec
    9174:	e2832001 	add	r2, r3, #1
    9178:	e50b2014 	str	r2, [fp, #-20]	; 0xffffffec
    917c:	e5d33000 	ldrb	r3, [r3]
    9180:	e54b3006 	strb	r3, [fp, #-6]
/mnt/c/user/privateWorkspace/School/OS/SP/KIV-RTOS/sources/stdlib/src/stdstring.cpp:226
      	if (u1 != u2)
    9184:	e55b2005 	ldrb	r2, [fp, #-5]
    9188:	e55b3006 	ldrb	r3, [fp, #-6]
    918c:	e1520003 	cmp	r2, r3
    9190:	0a000003 	beq	91a4 <_Z7strncmpPKcS0_i+0x84>
/mnt/c/user/privateWorkspace/School/OS/SP/KIV-RTOS/sources/stdlib/src/stdstring.cpp:227
        	return u1 - u2;
    9194:	e55b2005 	ldrb	r2, [fp, #-5]
    9198:	e55b3006 	ldrb	r3, [fp, #-6]
    919c:	e0423003 	sub	r3, r2, r3
    91a0:	ea000005 	b	91bc <_Z7strncmpPKcS0_i+0x9c>
/mnt/c/user/privateWorkspace/School/OS/SP/KIV-RTOS/sources/stdlib/src/stdstring.cpp:228
      	if (u1 == '\0')
    91a4:	e55b3005 	ldrb	r3, [fp, #-5]
    91a8:	e3530000 	cmp	r3, #0
    91ac:	1affffe1 	bne	9138 <_Z7strncmpPKcS0_i+0x18>
/mnt/c/user/privateWorkspace/School/OS/SP/KIV-RTOS/sources/stdlib/src/stdstring.cpp:229
        	return 0;
    91b0:	e3a03000 	mov	r3, #0
    91b4:	ea000000 	b	91bc <_Z7strncmpPKcS0_i+0x9c>
/mnt/c/user/privateWorkspace/School/OS/SP/KIV-RTOS/sources/stdlib/src/stdstring.cpp:232
    }

  	return 0;
    91b8:	e3a03000 	mov	r3, #0
/mnt/c/user/privateWorkspace/School/OS/SP/KIV-RTOS/sources/stdlib/src/stdstring.cpp:233
}
    91bc:	e1a00003 	mov	r0, r3
    91c0:	e28bd000 	add	sp, fp, #0
    91c4:	e49db004 	pop	{fp}		; (ldr fp, [sp], #4)
    91c8:	e12fff1e 	bx	lr

000091cc <_Z6strlenPKc>:
_Z6strlenPKc():
/mnt/c/user/privateWorkspace/School/OS/SP/KIV-RTOS/sources/stdlib/src/stdstring.cpp:236

int strlen(const char* s)
{
    91cc:	e52db004 	push	{fp}		; (str fp, [sp, #-4]!)
    91d0:	e28db000 	add	fp, sp, #0
    91d4:	e24dd014 	sub	sp, sp, #20
    91d8:	e50b0010 	str	r0, [fp, #-16]
/mnt/c/user/privateWorkspace/School/OS/SP/KIV-RTOS/sources/stdlib/src/stdstring.cpp:237
	int i = 0;
    91dc:	e3a03000 	mov	r3, #0
    91e0:	e50b3008 	str	r3, [fp, #-8]
/mnt/c/user/privateWorkspace/School/OS/SP/KIV-RTOS/sources/stdlib/src/stdstring.cpp:239

	while (s[i] != '\0')
    91e4:	e51b3008 	ldr	r3, [fp, #-8]
    91e8:	e51b2010 	ldr	r2, [fp, #-16]
    91ec:	e0823003 	add	r3, r2, r3
    91f0:	e5d33000 	ldrb	r3, [r3]
    91f4:	e3530000 	cmp	r3, #0
    91f8:	0a000003 	beq	920c <_Z6strlenPKc+0x40>
/mnt/c/user/privateWorkspace/School/OS/SP/KIV-RTOS/sources/stdlib/src/stdstring.cpp:240
		i++;
    91fc:	e51b3008 	ldr	r3, [fp, #-8]
    9200:	e2833001 	add	r3, r3, #1
    9204:	e50b3008 	str	r3, [fp, #-8]
/mnt/c/user/privateWorkspace/School/OS/SP/KIV-RTOS/sources/stdlib/src/stdstring.cpp:239
	while (s[i] != '\0')
    9208:	eafffff5 	b	91e4 <_Z6strlenPKc+0x18>
/mnt/c/user/privateWorkspace/School/OS/SP/KIV-RTOS/sources/stdlib/src/stdstring.cpp:242

	return i;
    920c:	e51b3008 	ldr	r3, [fp, #-8]
/mnt/c/user/privateWorkspace/School/OS/SP/KIV-RTOS/sources/stdlib/src/stdstring.cpp:243
}
    9210:	e1a00003 	mov	r0, r3
    9214:	e28bd000 	add	sp, fp, #0
    9218:	e49db004 	pop	{fp}		; (ldr fp, [sp], #4)
    921c:	e12fff1e 	bx	lr

00009220 <_Z5bzeroPvi>:
_Z5bzeroPvi():
/mnt/c/user/privateWorkspace/School/OS/SP/KIV-RTOS/sources/stdlib/src/stdstring.cpp:246

void bzero(void* memory, int length)
{
    9220:	e52db004 	push	{fp}		; (str fp, [sp, #-4]!)
    9224:	e28db000 	add	fp, sp, #0
    9228:	e24dd014 	sub	sp, sp, #20
    922c:	e50b0010 	str	r0, [fp, #-16]
    9230:	e50b1014 	str	r1, [fp, #-20]	; 0xffffffec
/mnt/c/user/privateWorkspace/School/OS/SP/KIV-RTOS/sources/stdlib/src/stdstring.cpp:247
	char* mem = reinterpret_cast<char*>(memory);
    9234:	e51b3010 	ldr	r3, [fp, #-16]
    9238:	e50b300c 	str	r3, [fp, #-12]
/mnt/c/user/privateWorkspace/School/OS/SP/KIV-RTOS/sources/stdlib/src/stdstring.cpp:249

	for (int i = 0; i < length; i++)
    923c:	e3a03000 	mov	r3, #0
    9240:	e50b3008 	str	r3, [fp, #-8]
/mnt/c/user/privateWorkspace/School/OS/SP/KIV-RTOS/sources/stdlib/src/stdstring.cpp:249 (discriminator 3)
    9244:	e51b2008 	ldr	r2, [fp, #-8]
    9248:	e51b3014 	ldr	r3, [fp, #-20]	; 0xffffffec
    924c:	e1520003 	cmp	r2, r3
    9250:	aa000008 	bge	9278 <_Z5bzeroPvi+0x58>
/mnt/c/user/privateWorkspace/School/OS/SP/KIV-RTOS/sources/stdlib/src/stdstring.cpp:250 (discriminator 2)
		mem[i] = 0;
    9254:	e51b3008 	ldr	r3, [fp, #-8]
    9258:	e51b200c 	ldr	r2, [fp, #-12]
    925c:	e0823003 	add	r3, r2, r3
    9260:	e3a02000 	mov	r2, #0
    9264:	e5c32000 	strb	r2, [r3]
/mnt/c/user/privateWorkspace/School/OS/SP/KIV-RTOS/sources/stdlib/src/stdstring.cpp:249 (discriminator 2)
	for (int i = 0; i < length; i++)
    9268:	e51b3008 	ldr	r3, [fp, #-8]
    926c:	e2833001 	add	r3, r3, #1
    9270:	e50b3008 	str	r3, [fp, #-8]
    9274:	eafffff2 	b	9244 <_Z5bzeroPvi+0x24>
/mnt/c/user/privateWorkspace/School/OS/SP/KIV-RTOS/sources/stdlib/src/stdstring.cpp:251
}
    9278:	e320f000 	nop	{0}
    927c:	e28bd000 	add	sp, fp, #0
    9280:	e49db004 	pop	{fp}		; (ldr fp, [sp], #4)
    9284:	e12fff1e 	bx	lr

00009288 <_Z6memcpyPKvPvi>:
_Z6memcpyPKvPvi():
/mnt/c/user/privateWorkspace/School/OS/SP/KIV-RTOS/sources/stdlib/src/stdstring.cpp:254

void memcpy(const void* src, void* dst, int num)
{
    9288:	e52db004 	push	{fp}		; (str fp, [sp, #-4]!)
    928c:	e28db000 	add	fp, sp, #0
    9290:	e24dd024 	sub	sp, sp, #36	; 0x24
    9294:	e50b0018 	str	r0, [fp, #-24]	; 0xffffffe8
    9298:	e50b101c 	str	r1, [fp, #-28]	; 0xffffffe4
    929c:	e50b2020 	str	r2, [fp, #-32]	; 0xffffffe0
/mnt/c/user/privateWorkspace/School/OS/SP/KIV-RTOS/sources/stdlib/src/stdstring.cpp:255
	const char* memsrc = reinterpret_cast<const char*>(src);
    92a0:	e51b3018 	ldr	r3, [fp, #-24]	; 0xffffffe8
    92a4:	e50b300c 	str	r3, [fp, #-12]
/mnt/c/user/privateWorkspace/School/OS/SP/KIV-RTOS/sources/stdlib/src/stdstring.cpp:256
	char* memdst = reinterpret_cast<char*>(dst);
    92a8:	e51b301c 	ldr	r3, [fp, #-28]	; 0xffffffe4
    92ac:	e50b3010 	str	r3, [fp, #-16]
/mnt/c/user/privateWorkspace/School/OS/SP/KIV-RTOS/sources/stdlib/src/stdstring.cpp:258

	for (int i = 0; i < num; i++)
    92b0:	e3a03000 	mov	r3, #0
    92b4:	e50b3008 	str	r3, [fp, #-8]
/mnt/c/user/privateWorkspace/School/OS/SP/KIV-RTOS/sources/stdlib/src/stdstring.cpp:258 (discriminator 3)
    92b8:	e51b2008 	ldr	r2, [fp, #-8]
    92bc:	e51b3020 	ldr	r3, [fp, #-32]	; 0xffffffe0
    92c0:	e1520003 	cmp	r2, r3
    92c4:	aa00000b 	bge	92f8 <_Z6memcpyPKvPvi+0x70>
/mnt/c/user/privateWorkspace/School/OS/SP/KIV-RTOS/sources/stdlib/src/stdstring.cpp:259 (discriminator 2)
		memdst[i] = memsrc[i];
    92c8:	e51b3008 	ldr	r3, [fp, #-8]
    92cc:	e51b200c 	ldr	r2, [fp, #-12]
    92d0:	e0822003 	add	r2, r2, r3
    92d4:	e51b3008 	ldr	r3, [fp, #-8]
    92d8:	e51b1010 	ldr	r1, [fp, #-16]
    92dc:	e0813003 	add	r3, r1, r3
    92e0:	e5d22000 	ldrb	r2, [r2]
    92e4:	e5c32000 	strb	r2, [r3]
/mnt/c/user/privateWorkspace/School/OS/SP/KIV-RTOS/sources/stdlib/src/stdstring.cpp:258 (discriminator 2)
	for (int i = 0; i < num; i++)
    92e8:	e51b3008 	ldr	r3, [fp, #-8]
    92ec:	e2833001 	add	r3, r3, #1
    92f0:	e50b3008 	str	r3, [fp, #-8]
    92f4:	eaffffef 	b	92b8 <_Z6memcpyPKvPvi+0x30>
/mnt/c/user/privateWorkspace/School/OS/SP/KIV-RTOS/sources/stdlib/src/stdstring.cpp:260
}
    92f8:	e320f000 	nop	{0}
    92fc:	e28bd000 	add	sp, fp, #0
    9300:	e49db004 	pop	{fp}		; (ldr fp, [sp], #4)
    9304:	e12fff1e 	bx	lr

00009308 <__udivsi3>:
__udivsi3():
    9308:	e2512001 	subs	r2, r1, #1
    930c:	012fff1e 	bxeq	lr
    9310:	3a000023 	bcc	93a4 <__udivsi3+0x9c>
    9314:	e1500001 	cmp	r0, r1
    9318:	9a00001a 	bls	9388 <__udivsi3+0x80>
    931c:	e1110002 	tst	r1, r2
    9320:	0a00001b 	beq	9394 <__udivsi3+0x8c>
    9324:	e16f3f11 	clz	r3, r1
    9328:	e16f2f10 	clz	r2, r0
    932c:	e0432002 	sub	r2, r3, r2
    9330:	e3a03001 	mov	r3, #1
    9334:	e1a01211 	lsl	r1, r1, r2
    9338:	e1a03213 	lsl	r3, r3, r2
    933c:	e3a02000 	mov	r2, #0
    9340:	e1500001 	cmp	r0, r1
    9344:	20400001 	subcs	r0, r0, r1
    9348:	21822003 	orrcs	r2, r2, r3
    934c:	e15000a1 	cmp	r0, r1, lsr #1
    9350:	204000a1 	subcs	r0, r0, r1, lsr #1
    9354:	218220a3 	orrcs	r2, r2, r3, lsr #1
    9358:	e1500121 	cmp	r0, r1, lsr #2
    935c:	20400121 	subcs	r0, r0, r1, lsr #2
    9360:	21822123 	orrcs	r2, r2, r3, lsr #2
    9364:	e15001a1 	cmp	r0, r1, lsr #3
    9368:	204001a1 	subcs	r0, r0, r1, lsr #3
    936c:	218221a3 	orrcs	r2, r2, r3, lsr #3
    9370:	e3500000 	cmp	r0, #0
    9374:	11b03223 	lsrsne	r3, r3, #4
    9378:	11a01221 	lsrne	r1, r1, #4
    937c:	1affffef 	bne	9340 <__udivsi3+0x38>
    9380:	e1a00002 	mov	r0, r2
    9384:	e12fff1e 	bx	lr
    9388:	03a00001 	moveq	r0, #1
    938c:	13a00000 	movne	r0, #0
    9390:	e12fff1e 	bx	lr
    9394:	e16f2f11 	clz	r2, r1
    9398:	e262201f 	rsb	r2, r2, #31
    939c:	e1a00230 	lsr	r0, r0, r2
    93a0:	e12fff1e 	bx	lr
    93a4:	e3500000 	cmp	r0, #0
    93a8:	13e00000 	mvnne	r0, #0
    93ac:	ea000007 	b	93d0 <__aeabi_idiv0>

000093b0 <__aeabi_uidivmod>:
__aeabi_uidivmod():
    93b0:	e3510000 	cmp	r1, #0
    93b4:	0afffffa 	beq	93a4 <__udivsi3+0x9c>
    93b8:	e92d4003 	push	{r0, r1, lr}
    93bc:	ebffffd1 	bl	9308 <__udivsi3>
    93c0:	e8bd4006 	pop	{r1, r2, lr}
    93c4:	e0030092 	mul	r3, r2, r0
    93c8:	e0411003 	sub	r1, r1, r3
    93cc:	e12fff1e 	bx	lr

000093d0 <__aeabi_idiv0>:
__aeabi_ldiv0():
    93d0:	e12fff1e 	bx	lr
