
./semestral_task:     file format elf32-littlearm


Disassembly of section .text:

00008000 <_start>:
_start():
/mnt/c/user/privateWorkspace/School/OS/SP/KIV-RTOS/Odevzdani/src/userspace/crt0.s:10
;@ startovaci symbol - vstupni bod z jadra OS do uzivatelskeho programu
;@ v podstate jen ihned zavola nejakou C funkci, nepotrebujeme nic tak kritickeho, abychom to vsechno museli psal v ASM
;@ jen _start vlastne ani neni funkce, takze by tento vstupni bod mel byt psany takto; rovnez je treba se ujistit, ze
;@ je tento symbol relokovany spravne na 0x8000 (tam OS ocekava, ze se nachazi vstupni bod)
_start:
    bl __crt0_run
    8000:	eb000017 	bl	8064 <__crt0_run>

00008004 <_hang>:
_hang():
/mnt/c/user/privateWorkspace/School/OS/SP/KIV-RTOS/Odevzdani/src/userspace/crt0.s:13
    ;@ z funkce __crt0_run by se nemel proces uz vratit, ale kdyby neco, tak se zacyklime
_hang:
    b _hang
    8004:	eafffffe 	b	8004 <_hang>

00008008 <__crt0_init_bss>:
__crt0_init_bss():
/mnt/c/user/privateWorkspace/School/OS/SP/KIV-RTOS/Odevzdani/src/userspace/crt0.c:10

extern unsigned int __bss_start;
extern unsigned int __bss_end;

void __crt0_init_bss()
{
    8008:	e52db004 	push	{fp}		; (str fp, [sp, #-4]!)
    800c:	e28db000 	add	fp, sp, #0
    8010:	e24dd00c 	sub	sp, sp, #12
/mnt/c/user/privateWorkspace/School/OS/SP/KIV-RTOS/Odevzdani/src/userspace/crt0.c:11
    for (unsigned int* cur = &__bss_start; cur < &__bss_end; cur++)
    8014:	e59f3040 	ldr	r3, [pc, #64]	; 805c <__crt0_init_bss+0x54>
    8018:	e50b3008 	str	r3, [fp, #-8]
    801c:	ea000005 	b	8038 <__crt0_init_bss+0x30>
/mnt/c/user/privateWorkspace/School/OS/SP/KIV-RTOS/Odevzdani/src/userspace/crt0.c:12 (discriminator 3)
        *cur = 0;
    8020:	e51b3008 	ldr	r3, [fp, #-8]
    8024:	e3a02000 	mov	r2, #0
    8028:	e5832000 	str	r2, [r3]
/mnt/c/user/privateWorkspace/School/OS/SP/KIV-RTOS/Odevzdani/src/userspace/crt0.c:11 (discriminator 3)
    for (unsigned int* cur = &__bss_start; cur < &__bss_end; cur++)
    802c:	e51b3008 	ldr	r3, [fp, #-8]
    8030:	e2833004 	add	r3, r3, #4
    8034:	e50b3008 	str	r3, [fp, #-8]
/mnt/c/user/privateWorkspace/School/OS/SP/KIV-RTOS/Odevzdani/src/userspace/crt0.c:11 (discriminator 1)
    8038:	e51b3008 	ldr	r3, [fp, #-8]
    803c:	e59f201c 	ldr	r2, [pc, #28]	; 8060 <__crt0_init_bss+0x58>
    8040:	e1530002 	cmp	r3, r2
    8044:	3afffff5 	bcc	8020 <__crt0_init_bss+0x18>
/mnt/c/user/privateWorkspace/School/OS/SP/KIV-RTOS/Odevzdani/src/userspace/crt0.c:13
}
    8048:	e320f000 	nop	{0}
    804c:	e320f000 	nop	{0}
    8050:	e28bd000 	add	sp, fp, #0
    8054:	e49db004 	pop	{fp}		; (ldr fp, [sp], #4)
    8058:	e12fff1e 	bx	lr
    805c:	0000b6e4 	andeq	fp, r0, r4, ror #13
    8060:	0000b714 	andeq	fp, r0, r4, lsl r7

00008064 <__crt0_run>:
__crt0_run():
/mnt/c/user/privateWorkspace/School/OS/SP/KIV-RTOS/Odevzdani/src/userspace/crt0.c:16

void __crt0_run()
{
    8064:	e92d4800 	push	{fp, lr}
    8068:	e28db004 	add	fp, sp, #4
    806c:	e24dd008 	sub	sp, sp, #8
/mnt/c/user/privateWorkspace/School/OS/SP/KIV-RTOS/Odevzdani/src/userspace/crt0.c:18
    // inicializace .bss sekce (vynulovani)
    __crt0_init_bss();
    8070:	ebffffe4 	bl	8008 <__crt0_init_bss>
/mnt/c/user/privateWorkspace/School/OS/SP/KIV-RTOS/Odevzdani/src/userspace/crt0.c:21

    // volani konstruktoru globalnich trid (C++)
    _cpp_startup();
    8074:	eb000040 	bl	817c <_cpp_startup>
/mnt/c/user/privateWorkspace/School/OS/SP/KIV-RTOS/Odevzdani/src/userspace/crt0.c:26

    // volani funkce main
    // nebudeme se zde zabyvat predavanim parametru do funkce main
    // jinak by se mohly predavat napr. namapovane do virtualniho adr. prostoru a odkazem pres zasobnik (kam nam muze OS pushnout co chce)
    int result = main(0, 0);
    8078:	e3a01000 	mov	r1, #0
    807c:	e3a00000 	mov	r0, #0
    8080:	eb00029a 	bl	8af0 <main>
    8084:	e50b0008 	str	r0, [fp, #-8]
/mnt/c/user/privateWorkspace/School/OS/SP/KIV-RTOS/Odevzdani/src/userspace/crt0.c:29

    // volani destruktoru globalnich trid (C++)
    _cpp_shutdown();
    8088:	eb000051 	bl	81d4 <_cpp_shutdown>
/mnt/c/user/privateWorkspace/School/OS/SP/KIV-RTOS/Odevzdani/src/userspace/crt0.c:32

    // volani terminate() syscallu s navratovym kodem funkce main
    asm volatile("mov r0, %0" : : "r" (result));
    808c:	e51b3008 	ldr	r3, [fp, #-8]
    8090:	e1a00003 	mov	r0, r3
/mnt/c/user/privateWorkspace/School/OS/SP/KIV-RTOS/Odevzdani/src/userspace/crt0.c:33
    asm volatile("svc #1");
    8094:	ef000001 	svc	0x00000001
/mnt/c/user/privateWorkspace/School/OS/SP/KIV-RTOS/Odevzdani/src/userspace/crt0.c:34
}
    8098:	e320f000 	nop	{0}
    809c:	e24bd004 	sub	sp, fp, #4
    80a0:	e8bd8800 	pop	{fp, pc}

000080a4 <__cxa_guard_acquire>:
__cxa_guard_acquire():
/mnt/c/user/privateWorkspace/School/OS/SP/KIV-RTOS/Odevzdani/src/userspace/cxxabi.cpp:11
	extern "C" int __cxa_guard_acquire (__guard *);
	extern "C" void __cxa_guard_release (__guard *);
	extern "C" void __cxa_guard_abort (__guard *);

	extern "C" int __cxa_guard_acquire (__guard *g)
	{
    80a4:	e52db004 	push	{fp}		; (str fp, [sp, #-4]!)
    80a8:	e28db000 	add	fp, sp, #0
    80ac:	e24dd00c 	sub	sp, sp, #12
    80b0:	e50b0008 	str	r0, [fp, #-8]
/mnt/c/user/privateWorkspace/School/OS/SP/KIV-RTOS/Odevzdani/src/userspace/cxxabi.cpp:12
		return !*(char *)(g);
    80b4:	e51b3008 	ldr	r3, [fp, #-8]
    80b8:	e5d33000 	ldrb	r3, [r3]
    80bc:	e3530000 	cmp	r3, #0
    80c0:	03a03001 	moveq	r3, #1
    80c4:	13a03000 	movne	r3, #0
    80c8:	e6ef3073 	uxtb	r3, r3
/mnt/c/user/privateWorkspace/School/OS/SP/KIV-RTOS/Odevzdani/src/userspace/cxxabi.cpp:13
	}
    80cc:	e1a00003 	mov	r0, r3
    80d0:	e28bd000 	add	sp, fp, #0
    80d4:	e49db004 	pop	{fp}		; (ldr fp, [sp], #4)
    80d8:	e12fff1e 	bx	lr

000080dc <__cxa_guard_release>:
__cxa_guard_release():
/mnt/c/user/privateWorkspace/School/OS/SP/KIV-RTOS/Odevzdani/src/userspace/cxxabi.cpp:16

	extern "C" void __cxa_guard_release (__guard *g)
	{
    80dc:	e52db004 	push	{fp}		; (str fp, [sp, #-4]!)
    80e0:	e28db000 	add	fp, sp, #0
    80e4:	e24dd00c 	sub	sp, sp, #12
    80e8:	e50b0008 	str	r0, [fp, #-8]
/mnt/c/user/privateWorkspace/School/OS/SP/KIV-RTOS/Odevzdani/src/userspace/cxxabi.cpp:17
		*(char *)g = 1;
    80ec:	e51b3008 	ldr	r3, [fp, #-8]
    80f0:	e3a02001 	mov	r2, #1
    80f4:	e5c32000 	strb	r2, [r3]
/mnt/c/user/privateWorkspace/School/OS/SP/KIV-RTOS/Odevzdani/src/userspace/cxxabi.cpp:18
	}
    80f8:	e320f000 	nop	{0}
    80fc:	e28bd000 	add	sp, fp, #0
    8100:	e49db004 	pop	{fp}		; (ldr fp, [sp], #4)
    8104:	e12fff1e 	bx	lr

00008108 <__cxa_guard_abort>:
__cxa_guard_abort():
/mnt/c/user/privateWorkspace/School/OS/SP/KIV-RTOS/Odevzdani/src/userspace/cxxabi.cpp:21

	extern "C" void __cxa_guard_abort (__guard *)
	{
    8108:	e52db004 	push	{fp}		; (str fp, [sp, #-4]!)
    810c:	e28db000 	add	fp, sp, #0
    8110:	e24dd00c 	sub	sp, sp, #12
    8114:	e50b0008 	str	r0, [fp, #-8]
/mnt/c/user/privateWorkspace/School/OS/SP/KIV-RTOS/Odevzdani/src/userspace/cxxabi.cpp:23

	}
    8118:	e320f000 	nop	{0}
    811c:	e28bd000 	add	sp, fp, #0
    8120:	e49db004 	pop	{fp}		; (ldr fp, [sp], #4)
    8124:	e12fff1e 	bx	lr

00008128 <__dso_handle>:
__dso_handle():
/mnt/c/user/privateWorkspace/School/OS/SP/KIV-RTOS/Odevzdani/src/userspace/cxxabi.cpp:27
}

extern "C" void __dso_handle()
{
    8128:	e52db004 	push	{fp}		; (str fp, [sp, #-4]!)
    812c:	e28db000 	add	fp, sp, #0
/mnt/c/user/privateWorkspace/School/OS/SP/KIV-RTOS/Odevzdani/src/userspace/cxxabi.cpp:29
    // ignore dtors for now
}
    8130:	e320f000 	nop	{0}
    8134:	e28bd000 	add	sp, fp, #0
    8138:	e49db004 	pop	{fp}		; (ldr fp, [sp], #4)
    813c:	e12fff1e 	bx	lr

00008140 <__cxa_atexit>:
__cxa_atexit():
/mnt/c/user/privateWorkspace/School/OS/SP/KIV-RTOS/Odevzdani/src/userspace/cxxabi.cpp:32

extern "C" void __cxa_atexit()
{
    8140:	e52db004 	push	{fp}		; (str fp, [sp, #-4]!)
    8144:	e28db000 	add	fp, sp, #0
/mnt/c/user/privateWorkspace/School/OS/SP/KIV-RTOS/Odevzdani/src/userspace/cxxabi.cpp:34
    // ignore dtors for now
}
    8148:	e320f000 	nop	{0}
    814c:	e28bd000 	add	sp, fp, #0
    8150:	e49db004 	pop	{fp}		; (ldr fp, [sp], #4)
    8154:	e12fff1e 	bx	lr

00008158 <__cxa_pure_virtual>:
__cxa_pure_virtual():
/mnt/c/user/privateWorkspace/School/OS/SP/KIV-RTOS/Odevzdani/src/userspace/cxxabi.cpp:37

extern "C" void __cxa_pure_virtual()
{
    8158:	e52db004 	push	{fp}		; (str fp, [sp, #-4]!)
    815c:	e28db000 	add	fp, sp, #0
/mnt/c/user/privateWorkspace/School/OS/SP/KIV-RTOS/Odevzdani/src/userspace/cxxabi.cpp:39
    // pure virtual method called
}
    8160:	e320f000 	nop	{0}
    8164:	e28bd000 	add	sp, fp, #0
    8168:	e49db004 	pop	{fp}		; (ldr fp, [sp], #4)
    816c:	e12fff1e 	bx	lr

00008170 <__aeabi_unwind_cpp_pr1>:
__aeabi_unwind_cpp_pr1():
/mnt/c/user/privateWorkspace/School/OS/SP/KIV-RTOS/Odevzdani/src/userspace/cxxabi.cpp:42

extern "C" void __aeabi_unwind_cpp_pr1()
{
    8170:	e52db004 	push	{fp}		; (str fp, [sp, #-4]!)
    8174:	e28db000 	add	fp, sp, #0
/mnt/c/user/privateWorkspace/School/OS/SP/KIV-RTOS/Odevzdani/src/userspace/cxxabi.cpp:43 (discriminator 1)
	while (true)
    8178:	eafffffe 	b	8178 <__aeabi_unwind_cpp_pr1+0x8>

0000817c <_cpp_startup>:
_cpp_startup():
/mnt/c/user/privateWorkspace/School/OS/SP/KIV-RTOS/Odevzdani/src/userspace/cxxabi.cpp:61
extern "C" dtor_ptr __DTOR_LIST__[0];
// konec pole destruktoru
extern "C" dtor_ptr __DTOR_END__[0];

extern "C" int _cpp_startup(void)
{
    817c:	e92d4800 	push	{fp, lr}
    8180:	e28db004 	add	fp, sp, #4
    8184:	e24dd008 	sub	sp, sp, #8
/mnt/c/user/privateWorkspace/School/OS/SP/KIV-RTOS/Odevzdani/src/userspace/cxxabi.cpp:66
	ctor_ptr* fnptr;
	
	// zavolame konstruktory globalnich C++ trid
	// v poli __CTOR_LIST__ jsou ukazatele na vygenerovane stuby volani konstruktoru
	for (fnptr = __CTOR_LIST__; fnptr < __CTOR_END__; fnptr++)
    8188:	e59f303c 	ldr	r3, [pc, #60]	; 81cc <_cpp_startup+0x50>
    818c:	e50b3008 	str	r3, [fp, #-8]
/mnt/c/user/privateWorkspace/School/OS/SP/KIV-RTOS/Odevzdani/src/userspace/cxxabi.cpp:66 (discriminator 3)
    8190:	e51b3008 	ldr	r3, [fp, #-8]
    8194:	e59f2034 	ldr	r2, [pc, #52]	; 81d0 <_cpp_startup+0x54>
    8198:	e1530002 	cmp	r3, r2
    819c:	2a000006 	bcs	81bc <_cpp_startup+0x40>
/mnt/c/user/privateWorkspace/School/OS/SP/KIV-RTOS/Odevzdani/src/userspace/cxxabi.cpp:67 (discriminator 2)
		(*fnptr)();
    81a0:	e51b3008 	ldr	r3, [fp, #-8]
    81a4:	e5933000 	ldr	r3, [r3]
    81a8:	e12fff33 	blx	r3
/mnt/c/user/privateWorkspace/School/OS/SP/KIV-RTOS/Odevzdani/src/userspace/cxxabi.cpp:66 (discriminator 2)
	for (fnptr = __CTOR_LIST__; fnptr < __CTOR_END__; fnptr++)
    81ac:	e51b3008 	ldr	r3, [fp, #-8]
    81b0:	e2833004 	add	r3, r3, #4
    81b4:	e50b3008 	str	r3, [fp, #-8]
    81b8:	eafffff4 	b	8190 <_cpp_startup+0x14>
/mnt/c/user/privateWorkspace/School/OS/SP/KIV-RTOS/Odevzdani/src/userspace/cxxabi.cpp:69
	
	return 0;
    81bc:	e3a03000 	mov	r3, #0
/mnt/c/user/privateWorkspace/School/OS/SP/KIV-RTOS/Odevzdani/src/userspace/cxxabi.cpp:70
}
    81c0:	e1a00003 	mov	r0, r3
    81c4:	e24bd004 	sub	sp, fp, #4
    81c8:	e8bd8800 	pop	{fp, pc}
    81cc:	0000b6e0 	andeq	fp, r0, r0, ror #13
    81d0:	0000b6e0 	andeq	fp, r0, r0, ror #13

000081d4 <_cpp_shutdown>:
_cpp_shutdown():
/mnt/c/user/privateWorkspace/School/OS/SP/KIV-RTOS/Odevzdani/src/userspace/cxxabi.cpp:73

extern "C" int _cpp_shutdown(void)
{
    81d4:	e92d4800 	push	{fp, lr}
    81d8:	e28db004 	add	fp, sp, #4
    81dc:	e24dd008 	sub	sp, sp, #8
/mnt/c/user/privateWorkspace/School/OS/SP/KIV-RTOS/Odevzdani/src/userspace/cxxabi.cpp:77
	dtor_ptr* fnptr;
	
	// zavolame destruktory globalnich C++ trid
	for (fnptr = __DTOR_LIST__; fnptr < __DTOR_END__; fnptr++)
    81e0:	e59f303c 	ldr	r3, [pc, #60]	; 8224 <_cpp_shutdown+0x50>
    81e4:	e50b3008 	str	r3, [fp, #-8]
/mnt/c/user/privateWorkspace/School/OS/SP/KIV-RTOS/Odevzdani/src/userspace/cxxabi.cpp:77 (discriminator 3)
    81e8:	e51b3008 	ldr	r3, [fp, #-8]
    81ec:	e59f2034 	ldr	r2, [pc, #52]	; 8228 <_cpp_shutdown+0x54>
    81f0:	e1530002 	cmp	r3, r2
    81f4:	2a000006 	bcs	8214 <_cpp_shutdown+0x40>
/mnt/c/user/privateWorkspace/School/OS/SP/KIV-RTOS/Odevzdani/src/userspace/cxxabi.cpp:78 (discriminator 2)
		(*fnptr)();
    81f8:	e51b3008 	ldr	r3, [fp, #-8]
    81fc:	e5933000 	ldr	r3, [r3]
    8200:	e12fff33 	blx	r3
/mnt/c/user/privateWorkspace/School/OS/SP/KIV-RTOS/Odevzdani/src/userspace/cxxabi.cpp:77 (discriminator 2)
	for (fnptr = __DTOR_LIST__; fnptr < __DTOR_END__; fnptr++)
    8204:	e51b3008 	ldr	r3, [fp, #-8]
    8208:	e2833004 	add	r3, r3, #4
    820c:	e50b3008 	str	r3, [fp, #-8]
    8210:	eafffff4 	b	81e8 <_cpp_shutdown+0x14>
/mnt/c/user/privateWorkspace/School/OS/SP/KIV-RTOS/Odevzdani/src/userspace/cxxabi.cpp:80
	
	return 0;
    8214:	e3a03000 	mov	r3, #0
/mnt/c/user/privateWorkspace/School/OS/SP/KIV-RTOS/Odevzdani/src/userspace/cxxabi.cpp:81
}
    8218:	e1a00003 	mov	r0, r3
    821c:	e24bd004 	sub	sp, fp, #4
    8220:	e8bd8800 	pop	{fp, pc}
    8224:	0000b6e0 	andeq	fp, r0, r0, ror #13
    8228:	0000b6e0 	andeq	fp, r0, r0, ror #13
    822c:	00000000 	andeq	r0, r0, r0

00008230 <_Z9init_uartv>:
_Z9init_uartv():
/mnt/c/user/privateWorkspace/School/OS/SP/KIV-RTOS/Odevzdani/src/userspace/semestral_task/main.cpp:44
 * Logger task
 * 
 * Prijima vsechny udalosti od ostatnich tasku a oznamuje je skrz UART hostiteli
 **/

uint32_t init_uart() {
    8230:	e92d4800 	push	{fp, lr}
    8234:	e28db004 	add	fp, sp, #4
    8238:	e24dd010 	sub	sp, sp, #16
/mnt/c/user/privateWorkspace/School/OS/SP/KIV-RTOS/Odevzdani/src/userspace/semestral_task/main.cpp:45
	uint32_t uart_file = open("DEV:uart/0", NFile_Open_Mode::Read_Write);
    823c:	e3a01002 	mov	r1, #2
    8240:	e59f0054 	ldr	r0, [pc, #84]	; 829c <_Z9init_uartv+0x6c>
    8244:	eb00060f 	bl	9a88 <_Z4openPKc15NFile_Open_Mode>
    8248:	e50b0008 	str	r0, [fp, #-8]
/mnt/c/user/privateWorkspace/School/OS/SP/KIV-RTOS/Odevzdani/src/userspace/semestral_task/main.cpp:48

	TUART_IOCtl_Params params;
	params.baud_rate = NUART_Baud_Rate::BR_115200;
    824c:	e59f304c 	ldr	r3, [pc, #76]	; 82a0 <_Z9init_uartv+0x70>
    8250:	e50b3010 	str	r3, [fp, #-16]
/mnt/c/user/privateWorkspace/School/OS/SP/KIV-RTOS/Odevzdani/src/userspace/semestral_task/main.cpp:49
	params.char_length = NUART_Char_Length::Char_8;
    8254:	e3a03001 	mov	r3, #1
    8258:	e50b3014 	str	r3, [fp, #-20]	; 0xffffffec
/mnt/c/user/privateWorkspace/School/OS/SP/KIV-RTOS/Odevzdani/src/userspace/semestral_task/main.cpp:50
	ioctl(uart_file, NIOCtl_Operation::Set_Params, &params);
    825c:	e24b3014 	sub	r3, fp, #20
    8260:	e1a02003 	mov	r2, r3
    8264:	e3a01001 	mov	r1, #1
    8268:	e51b0008 	ldr	r0, [fp, #-8]
    826c:	eb000649 	bl	9b98 <_Z5ioctlj16NIOCtl_OperationPv>
/mnt/c/user/privateWorkspace/School/OS/SP/KIV-RTOS/Odevzdani/src/userspace/semestral_task/main.cpp:53

	//We don't care about other values like baud rate and char length when enabling interrupt.
	params.interrupt_type = NUART_Interrupt_Type::RX;
    8270:	e3a03000 	mov	r3, #0
    8274:	e50b300c 	str	r3, [fp, #-12]
/mnt/c/user/privateWorkspace/School/OS/SP/KIV-RTOS/Odevzdani/src/userspace/semestral_task/main.cpp:54
	ioctl(uart_file, NIOCtl_Operation::Enable_Event_Detection, &params);
    8278:	e24b3014 	sub	r3, fp, #20
    827c:	e1a02003 	mov	r2, r3
    8280:	e3a01002 	mov	r1, #2
    8284:	e51b0008 	ldr	r0, [fp, #-8]
    8288:	eb000642 	bl	9b98 <_Z5ioctlj16NIOCtl_OperationPv>
/mnt/c/user/privateWorkspace/School/OS/SP/KIV-RTOS/Odevzdani/src/userspace/semestral_task/main.cpp:56

	return uart_file;
    828c:	e51b3008 	ldr	r3, [fp, #-8]
/mnt/c/user/privateWorkspace/School/OS/SP/KIV-RTOS/Odevzdani/src/userspace/semestral_task/main.cpp:57
};
    8290:	e1a00003 	mov	r0, r3
    8294:	e24bd004 	sub	sp, fp, #4
    8298:	e8bd8800 	pop	{fp, pc}
    829c:	0000b420 	andeq	fp, r0, r0, lsr #8
    82a0:	0001c200 	andeq	ip, r1, r0, lsl #4

000082a4 <_Z12read_num_valPcjP10Read_UtilsPKc>:
_Z12read_num_valPcjP10Read_UtilsPKc():
/mnt/c/user/privateWorkspace/School/OS/SP/KIV-RTOS/Odevzdani/src/userspace/semestral_task/main.cpp:59

int read_num_val(char* buffer, uint32_t uart_file, Read_Utils* read_utils, const char* value) {
    82a4:	e92d4800 	push	{fp, lr}
    82a8:	e28db004 	add	fp, sp, #4
    82ac:	e24dd0a8 	sub	sp, sp, #168	; 0xa8
    82b0:	e50b00a0 	str	r0, [fp, #-160]	; 0xffffff60
    82b4:	e50b10a4 	str	r1, [fp, #-164]	; 0xffffff5c
    82b8:	e50b20a8 	str	r2, [fp, #-168]	; 0xffffff58
    82bc:	e50b30ac 	str	r3, [fp, #-172]	; 0xffffff54
/mnt/c/user/privateWorkspace/School/OS/SP/KIV-RTOS/Odevzdani/src/userspace/semestral_task/main.cpp:60
	int retValue = 0;
    82c0:	e3a03000 	mov	r3, #0
    82c4:	e50b3008 	str	r3, [fp, #-8]
/mnt/c/user/privateWorkspace/School/OS/SP/KIV-RTOS/Odevzdani/src/userspace/semestral_task/main.cpp:64
	char message_buffer[MESSAGE_BUFFER_SIZE];
	char tmp_buffer[TMP_BUFFER_SIZE];

	while (retValue == 0) {
    82c8:	e51b3008 	ldr	r3, [fp, #-8]
    82cc:	e3530000 	cmp	r3, #0
    82d0:	1a00003a 	bne	83c0 <_Z12read_num_valPcjP10Read_UtilsPKc+0x11c>
/mnt/c/user/privateWorkspace/School/OS/SP/KIV-RTOS/Odevzdani/src/userspace/semestral_task/main.cpp:65
		fputs(uart_file, WRITE_SYMBOL);
    82d4:	e59f10f4 	ldr	r1, [pc, #244]	; 83d0 <_Z12read_num_valPcjP10Read_UtilsPKc+0x12c>
    82d8:	e51b00a4 	ldr	r0, [fp, #-164]	; 0xffffff5c
    82dc:	eb000586 	bl	98fc <_Z5fputsjPKc>
/mnt/c/user/privateWorkspace/School/OS/SP/KIV-RTOS/Odevzdani/src/userspace/semestral_task/main.cpp:67
		
		uint32_t read_chars = read_utils->read_line(buffer, uart_file, true);
    82e0:	e3a03001 	mov	r3, #1
    82e4:	e51b20a4 	ldr	r2, [fp, #-164]	; 0xffffff5c
    82e8:	e51b10a0 	ldr	r1, [fp, #-160]	; 0xffffff60
    82ec:	e51b00a8 	ldr	r0, [fp, #-168]	; 0xffffff58
    82f0:	eb000a05 	bl	ab0c <_ZN10Read_Utils9read_lineEPcjb>
    82f4:	e50b000c 	str	r0, [fp, #-12]
/mnt/c/user/privateWorkspace/School/OS/SP/KIV-RTOS/Odevzdani/src/userspace/semestral_task/main.cpp:68
		bzero(message_buffer, MESSAGE_BUFFER_SIZE);
    82f8:	e24b308c 	sub	r3, fp, #140	; 0x8c
    82fc:	e3a01080 	mov	r1, #128	; 0x80
    8300:	e1a00003 	mov	r0, r3
    8304:	eb0009bb 	bl	a9f8 <_Z5bzeroPvi>
/mnt/c/user/privateWorkspace/School/OS/SP/KIV-RTOS/Odevzdani/src/userspace/semestral_task/main.cpp:69
		bzero(tmp_buffer, TMP_BUFFER_SIZE);
    8308:	e24b3098 	sub	r3, fp, #152	; 0x98
    830c:	e3a0100a 	mov	r1, #10
    8310:	e1a00003 	mov	r0, r3
    8314:	eb0009b7 	bl	a9f8 <_Z5bzeroPvi>
/mnt/c/user/privateWorkspace/School/OS/SP/KIV-RTOS/Odevzdani/src/userspace/semestral_task/main.cpp:71

		retValue = atoi(buffer);
    8318:	e51b00a0 	ldr	r0, [fp, #-160]	; 0xffffff60
    831c:	eb00073e 	bl	a01c <_Z4atoiPKc>
    8320:	e50b0008 	str	r0, [fp, #-8]
/mnt/c/user/privateWorkspace/School/OS/SP/KIV-RTOS/Odevzdani/src/userspace/semestral_task/main.cpp:73

		if (retValue > 0) {
    8324:	e51b3008 	ldr	r3, [fp, #-8]
    8328:	e3530000 	cmp	r3, #0
    832c:	da00001a 	ble	839c <_Z12read_num_valPcjP10Read_UtilsPKc+0xf8>
/mnt/c/user/privateWorkspace/School/OS/SP/KIV-RTOS/Odevzdani/src/userspace/semestral_task/main.cpp:74
			itoa(retValue, tmp_buffer, TMP_BUFFER_SIZE);
    8330:	e51b3008 	ldr	r3, [fp, #-8]
    8334:	e24b1098 	sub	r1, fp, #152	; 0x98
    8338:	e3a0200a 	mov	r2, #10
    833c:	e1a00003 	mov	r0, r3
    8340:	eb0006d8 	bl	9ea8 <_Z4itoajPcj>
/mnt/c/user/privateWorkspace/School/OS/SP/KIV-RTOS/Odevzdani/src/userspace/semestral_task/main.cpp:76

			strcat(message_buffer, "OK, ");
    8344:	e24b308c 	sub	r3, fp, #140	; 0x8c
    8348:	e59f1084 	ldr	r1, [pc, #132]	; 83d4 <_Z12read_num_valPcjP10Read_UtilsPKc+0x130>
    834c:	e1a00003 	mov	r0, r3
    8350:	eb000933 	bl	a824 <_Z6strcatPcPKc>
/mnt/c/user/privateWorkspace/School/OS/SP/KIV-RTOS/Odevzdani/src/userspace/semestral_task/main.cpp:77
			strcat(message_buffer, value);
    8354:	e24b308c 	sub	r3, fp, #140	; 0x8c
    8358:	e51b10ac 	ldr	r1, [fp, #-172]	; 0xffffff54
    835c:	e1a00003 	mov	r0, r3
    8360:	eb00092f 	bl	a824 <_Z6strcatPcPKc>
/mnt/c/user/privateWorkspace/School/OS/SP/KIV-RTOS/Odevzdani/src/userspace/semestral_task/main.cpp:78
			strcat(message_buffer, " ");
    8364:	e24b308c 	sub	r3, fp, #140	; 0x8c
    8368:	e59f1068 	ldr	r1, [pc, #104]	; 83d8 <_Z12read_num_valPcjP10Read_UtilsPKc+0x134>
    836c:	e1a00003 	mov	r0, r3
    8370:	eb00092b 	bl	a824 <_Z6strcatPcPKc>
/mnt/c/user/privateWorkspace/School/OS/SP/KIV-RTOS/Odevzdani/src/userspace/semestral_task/main.cpp:79
			strcat(message_buffer, tmp_buffer);
    8374:	e24b2098 	sub	r2, fp, #152	; 0x98
    8378:	e24b308c 	sub	r3, fp, #140	; 0x8c
    837c:	e1a01002 	mov	r1, r2
    8380:	e1a00003 	mov	r0, r3
    8384:	eb000926 	bl	a824 <_Z6strcatPcPKc>
/mnt/c/user/privateWorkspace/School/OS/SP/KIV-RTOS/Odevzdani/src/userspace/semestral_task/main.cpp:80
			strcat(message_buffer, " minut");	
    8388:	e24b308c 	sub	r3, fp, #140	; 0x8c
    838c:	e59f1048 	ldr	r1, [pc, #72]	; 83dc <_Z12read_num_valPcjP10Read_UtilsPKc+0x138>
    8390:	e1a00003 	mov	r0, r3
    8394:	eb000922 	bl	a824 <_Z6strcatPcPKc>
    8398:	ea000003 	b	83ac <_Z12read_num_valPcjP10Read_UtilsPKc+0x108>
/mnt/c/user/privateWorkspace/School/OS/SP/KIV-RTOS/Odevzdani/src/userspace/semestral_task/main.cpp:82
		} else {
			strcat(message_buffer, INCORRECT_VALUE);
    839c:	e24b308c 	sub	r3, fp, #140	; 0x8c
    83a0:	e59f1038 	ldr	r1, [pc, #56]	; 83e0 <_Z12read_num_valPcjP10Read_UtilsPKc+0x13c>
    83a4:	e1a00003 	mov	r0, r3
    83a8:	eb00091d 	bl	a824 <_Z6strcatPcPKc>
/mnt/c/user/privateWorkspace/School/OS/SP/KIV-RTOS/Odevzdani/src/userspace/semestral_task/main.cpp:85
		}

		println(uart_file, message_buffer);
    83ac:	e24b308c 	sub	r3, fp, #140	; 0x8c
    83b0:	e1a01003 	mov	r1, r3
    83b4:	e51b00a4 	ldr	r0, [fp, #-164]	; 0xffffff5c
    83b8:	eb00055e 	bl	9938 <_Z7printlnjPKc>
/mnt/c/user/privateWorkspace/School/OS/SP/KIV-RTOS/Odevzdani/src/userspace/semestral_task/main.cpp:64
	while (retValue == 0) {
    83bc:	eaffffc1 	b	82c8 <_Z12read_num_valPcjP10Read_UtilsPKc+0x24>
/mnt/c/user/privateWorkspace/School/OS/SP/KIV-RTOS/Odevzdani/src/userspace/semestral_task/main.cpp:88
	}

	return retValue;
    83c0:	e51b3008 	ldr	r3, [fp, #-8]
/mnt/c/user/privateWorkspace/School/OS/SP/KIV-RTOS/Odevzdani/src/userspace/semestral_task/main.cpp:89
}
    83c4:	e1a00003 	mov	r0, r3
    83c8:	e24bd004 	sub	sp, fp, #4
    83cc:	e8bd8800 	pop	{fp, pc}
    83d0:	0000b42c 	andeq	fp, r0, ip, lsr #8
    83d4:	0000b430 	andeq	fp, r0, r0, lsr r4
    83d8:	0000b438 	andeq	fp, r0, r8, lsr r4
    83dc:	0000b43c 	andeq	fp, r0, ip, lsr r4
    83e0:	0000b444 	andeq	fp, r0, r4, asr #8

000083e4 <_Z14read_float_valPcj>:
_Z14read_float_valPcj():
/mnt/c/user/privateWorkspace/School/OS/SP/KIV-RTOS/Odevzdani/src/userspace/semestral_task/main.cpp:91

float read_float_val(char* buffer, uint32_t uart_file) {
    83e4:	e92d4800 	push	{fp, lr}
    83e8:	e28db004 	add	fp, sp, #4
    83ec:	e24dd008 	sub	sp, sp, #8
    83f0:	e50b0008 	str	r0, [fp, #-8]
    83f4:	e50b100c 	str	r1, [fp, #-12]
/mnt/c/user/privateWorkspace/School/OS/SP/KIV-RTOS/Odevzdani/src/userspace/semestral_task/main.cpp:92
	if (isnan(buffer, true)) {
    83f8:	e3a01001 	mov	r1, #1
    83fc:	e51b0008 	ldr	r0, [fp, #-8]
    8400:	eb000764 	bl	a198 <_Z5isnanPKcb>
    8404:	e1a03000 	mov	r3, r0
    8408:	e3530000 	cmp	r3, #0
    840c:	0a000004 	beq	8424 <_Z14read_float_valPcj+0x40>
/mnt/c/user/privateWorkspace/School/OS/SP/KIV-RTOS/Odevzdani/src/userspace/semestral_task/main.cpp:93
		println(uart_file, INCORRECT_NUMBER_FORMAT);
    8410:	e59f102c 	ldr	r1, [pc, #44]	; 8444 <_Z14read_float_valPcj+0x60>
    8414:	e51b000c 	ldr	r0, [fp, #-12]
    8418:	eb000546 	bl	9938 <_Z7printlnjPKc>
/mnt/c/user/privateWorkspace/School/OS/SP/KIV-RTOS/Odevzdani/src/userspace/semestral_task/main.cpp:94
		return NAN_FLOAT;
    841c:	eddf7a07 	vldr	s15, [pc, #28]	; 8440 <_Z14read_float_valPcj+0x5c>
    8420:	ea000003 	b	8434 <_Z14read_float_valPcj+0x50>
/mnt/c/user/privateWorkspace/School/OS/SP/KIV-RTOS/Odevzdani/src/userspace/semestral_task/main.cpp:97
	} 

	return atof(buffer);
    8424:	e51b0008 	ldr	r0, [fp, #-8]
    8428:	eb000791 	bl	a274 <_Z4atofPKc>
    842c:	eef07a40 	vmov.f32	s15, s0
    8430:	e320f000 	nop	{0}
/mnt/c/user/privateWorkspace/School/OS/SP/KIV-RTOS/Odevzdani/src/userspace/semestral_task/main.cpp:98
}
    8434:	eeb00a67 	vmov.f32	s0, s15
    8438:	e24bd004 	sub	sp, fp, #4
    843c:	e8bd8800 	pop	{fp, pc}
    8440:	bf800000 	svclt	0x00800000
    8444:	0000b458 	andeq	fp, r0, r8, asr r4

00008448 <_Z14read_step_timePcjP10Read_Utils>:
_Z14read_step_timePcjP10Read_Utils():
/mnt/c/user/privateWorkspace/School/OS/SP/KIV-RTOS/Odevzdani/src/userspace/semestral_task/main.cpp:100

int read_step_time(char* buffer, uint32_t uart_file, Read_Utils* read_utils) {
    8448:	e92d4800 	push	{fp, lr}
    844c:	e28db004 	add	fp, sp, #4
    8450:	e24dd010 	sub	sp, sp, #16
    8454:	e50b0008 	str	r0, [fp, #-8]
    8458:	e50b100c 	str	r1, [fp, #-12]
    845c:	e50b2010 	str	r2, [fp, #-16]
/mnt/c/user/privateWorkspace/School/OS/SP/KIV-RTOS/Odevzdani/src/userspace/semestral_task/main.cpp:101
	return read_num_val(buffer, uart_file, read_utils, "krokovani");
    8460:	e59f301c 	ldr	r3, [pc, #28]	; 8484 <_Z14read_step_timePcjP10Read_Utils+0x3c>
    8464:	e51b2010 	ldr	r2, [fp, #-16]
    8468:	e51b100c 	ldr	r1, [fp, #-12]
    846c:	e51b0008 	ldr	r0, [fp, #-8]
    8470:	ebffff8b 	bl	82a4 <_Z12read_num_valPcjP10Read_UtilsPKc>
    8474:	e1a03000 	mov	r3, r0
/mnt/c/user/privateWorkspace/School/OS/SP/KIV-RTOS/Odevzdani/src/userspace/semestral_task/main.cpp:102
}
    8478:	e1a00003 	mov	r0, r3
    847c:	e24bd004 	sub	sp, fp, #4
    8480:	e8bd8800 	pop	{fp, pc}
    8484:	0000b478 	andeq	fp, r0, r8, ror r4

00008488 <_Z20read_prediction_timePcjP10Read_Utils>:
_Z20read_prediction_timePcjP10Read_Utils():
/mnt/c/user/privateWorkspace/School/OS/SP/KIV-RTOS/Odevzdani/src/userspace/semestral_task/main.cpp:104

int read_prediction_time(char* buffer, uint32_t uart_file, Read_Utils* read_utils) {
    8488:	e92d4800 	push	{fp, lr}
    848c:	e28db004 	add	fp, sp, #4
    8490:	e24dd010 	sub	sp, sp, #16
    8494:	e50b0008 	str	r0, [fp, #-8]
    8498:	e50b100c 	str	r1, [fp, #-12]
    849c:	e50b2010 	str	r2, [fp, #-16]
/mnt/c/user/privateWorkspace/School/OS/SP/KIV-RTOS/Odevzdani/src/userspace/semestral_task/main.cpp:105
	return read_num_val(buffer, uart_file, read_utils, "predpoved");
    84a0:	e59f301c 	ldr	r3, [pc, #28]	; 84c4 <_Z20read_prediction_timePcjP10Read_Utils+0x3c>
    84a4:	e51b2010 	ldr	r2, [fp, #-16]
    84a8:	e51b100c 	ldr	r1, [fp, #-12]
    84ac:	e51b0008 	ldr	r0, [fp, #-8]
    84b0:	ebffff7b 	bl	82a4 <_Z12read_num_valPcjP10Read_UtilsPKc>
    84b4:	e1a03000 	mov	r3, r0
/mnt/c/user/privateWorkspace/School/OS/SP/KIV-RTOS/Odevzdani/src/userspace/semestral_task/main.cpp:106
}
    84b8:	e1a00003 	mov	r0, r3
    84bc:	e24bd004 	sub	sp, fp, #4
    84c0:	e8bd8800 	pop	{fp, pc}
    84c4:	0000b484 	andeq	fp, r0, r4, lsl #9

000084c8 <_Z13process_paramPcj>:
_Z13process_paramPcj():
/mnt/c/user/privateWorkspace/School/OS/SP/KIV-RTOS/Odevzdani/src/userspace/semestral_task/main.cpp:113
/**
 *	0 = not processed (probably float value or unknown command) 
 *	1 = Generic command received flag (and might have been somehow processed)
 *  2 = Stop command was received.
 */
int process_param(char* buffer, uint32_t file) {
    84c8:	e92d4800 	push	{fp, lr}
    84cc:	e28db004 	add	fp, sp, #4
    84d0:	e24dd0a8 	sub	sp, sp, #168	; 0xa8
    84d4:	e50b00a8 	str	r0, [fp, #-168]	; 0xffffff58
    84d8:	e50b10ac 	str	r1, [fp, #-172]	; 0xffffff54
/mnt/c/user/privateWorkspace/School/OS/SP/KIV-RTOS/Odevzdani/src/userspace/semestral_task/main.cpp:115
	//Print the parameters. It is not particularly nice writing it this way, but.. :)
	if (strncmp(buffer, PARAMS_COMMAND, strlen(PARAMS_COMMAND)) == 0) {
    84dc:	e59f0210 	ldr	r0, [pc, #528]	; 86f4 <_Z13process_paramPcj+0x22c>
    84e0:	eb00092f 	bl	a9a4 <_Z6strlenPKc>
    84e4:	e1a03000 	mov	r3, r0
    84e8:	e1a02003 	mov	r2, r3
    84ec:	e59f1200 	ldr	r1, [pc, #512]	; 86f4 <_Z13process_paramPcj+0x22c>
    84f0:	e51b00a8 	ldr	r0, [fp, #-168]	; 0xffffff58
    84f4:	eb0008ff 	bl	a8f8 <_Z7strncmpPKcS0_i>
    84f8:	e1a03000 	mov	r3, r0
    84fc:	e3530000 	cmp	r3, #0
    8500:	03a03001 	moveq	r3, #1
    8504:	13a03000 	movne	r3, #0
    8508:	e6ef3073 	uxtb	r3, r3
    850c:	e3530000 	cmp	r3, #0
    8510:	0a000063 	beq	86a4 <_Z13process_paramPcj+0x1dc>
/mnt/c/user/privateWorkspace/School/OS/SP/KIV-RTOS/Odevzdani/src/userspace/semestral_task/main.cpp:119
		char message_buffer[MESSAGE_BUFFER_SIZE];
		char tmp_buffer[TMP_BUFFER_SIZE];

		Model model = gens[2].gen[0].get_model();
    8514:	e59f31dc 	ldr	r3, [pc, #476]	; 86f8 <_Z13process_paramPcj+0x230>
    8518:	e5933000 	ldr	r3, [r3]
    851c:	e2833d4b 	add	r3, r3, #4800	; 0x12c0
    8520:	e1a02003 	mov	r2, r3
    8524:	e24b3024 	sub	r3, fp, #36	; 0x24
    8528:	e1a01002 	mov	r1, r2
    852c:	e1a00003 	mov	r0, r3
    8530:	eb00032b 	bl	91e4 <_ZN10Chromosome9get_modelEv>
/mnt/c/user/privateWorkspace/School/OS/SP/KIV-RTOS/Odevzdani/src/userspace/semestral_task/main.cpp:121

		strcat(message_buffer, "A = ");
    8534:	e24b30a4 	sub	r3, fp, #164	; 0xa4
    8538:	e59f11bc 	ldr	r1, [pc, #444]	; 86fc <_Z13process_paramPcj+0x234>
    853c:	e1a00003 	mov	r0, r3
    8540:	eb0008b7 	bl	a824 <_Z6strcatPcPKc>
/mnt/c/user/privateWorkspace/School/OS/SP/KIV-RTOS/Odevzdani/src/userspace/semestral_task/main.cpp:122
		ftoa(tmp_buffer, model.A);
    8544:	ed5b7a09 	vldr	s15, [fp, #-36]	; 0xffffffdc
    8548:	e24b3010 	sub	r3, fp, #16
    854c:	eeb00a67 	vmov.f32	s0, s15
    8550:	e1a00003 	mov	r0, r3
    8554:	eb0007f4 	bl	a52c <_Z4ftoaPcf>
/mnt/c/user/privateWorkspace/School/OS/SP/KIV-RTOS/Odevzdani/src/userspace/semestral_task/main.cpp:123
		strcat(message_buffer, tmp_buffer);
    8558:	e24b2010 	sub	r2, fp, #16
    855c:	e24b30a4 	sub	r3, fp, #164	; 0xa4
    8560:	e1a01002 	mov	r1, r2
    8564:	e1a00003 	mov	r0, r3
    8568:	eb0008ad 	bl	a824 <_Z6strcatPcPKc>
/mnt/c/user/privateWorkspace/School/OS/SP/KIV-RTOS/Odevzdani/src/userspace/semestral_task/main.cpp:124
		bzero(tmp_buffer, TMP_BUFFER_SIZE);
    856c:	e24b3010 	sub	r3, fp, #16
    8570:	e3a0100a 	mov	r1, #10
    8574:	e1a00003 	mov	r0, r3
    8578:	eb00091e 	bl	a9f8 <_Z5bzeroPvi>
/mnt/c/user/privateWorkspace/School/OS/SP/KIV-RTOS/Odevzdani/src/userspace/semestral_task/main.cpp:126

		strcat(message_buffer, ", B = ");
    857c:	e24b30a4 	sub	r3, fp, #164	; 0xa4
    8580:	e59f1178 	ldr	r1, [pc, #376]	; 8700 <_Z13process_paramPcj+0x238>
    8584:	e1a00003 	mov	r0, r3
    8588:	eb0008a5 	bl	a824 <_Z6strcatPcPKc>
/mnt/c/user/privateWorkspace/School/OS/SP/KIV-RTOS/Odevzdani/src/userspace/semestral_task/main.cpp:127
		ftoa(tmp_buffer, model.B);
    858c:	ed5b7a08 	vldr	s15, [fp, #-32]	; 0xffffffe0
    8590:	e24b3010 	sub	r3, fp, #16
    8594:	eeb00a67 	vmov.f32	s0, s15
    8598:	e1a00003 	mov	r0, r3
    859c:	eb0007e2 	bl	a52c <_Z4ftoaPcf>
/mnt/c/user/privateWorkspace/School/OS/SP/KIV-RTOS/Odevzdani/src/userspace/semestral_task/main.cpp:128
		strcat(message_buffer, tmp_buffer);
    85a0:	e24b2010 	sub	r2, fp, #16
    85a4:	e24b30a4 	sub	r3, fp, #164	; 0xa4
    85a8:	e1a01002 	mov	r1, r2
    85ac:	e1a00003 	mov	r0, r3
    85b0:	eb00089b 	bl	a824 <_Z6strcatPcPKc>
/mnt/c/user/privateWorkspace/School/OS/SP/KIV-RTOS/Odevzdani/src/userspace/semestral_task/main.cpp:129
		bzero(tmp_buffer, TMP_BUFFER_SIZE);
    85b4:	e24b3010 	sub	r3, fp, #16
    85b8:	e3a0100a 	mov	r1, #10
    85bc:	e1a00003 	mov	r0, r3
    85c0:	eb00090c 	bl	a9f8 <_Z5bzeroPvi>
/mnt/c/user/privateWorkspace/School/OS/SP/KIV-RTOS/Odevzdani/src/userspace/semestral_task/main.cpp:131

		strcat(message_buffer, ", C = ");
    85c4:	e24b30a4 	sub	r3, fp, #164	; 0xa4
    85c8:	e59f1134 	ldr	r1, [pc, #308]	; 8704 <_Z13process_paramPcj+0x23c>
    85cc:	e1a00003 	mov	r0, r3
    85d0:	eb000893 	bl	a824 <_Z6strcatPcPKc>
/mnt/c/user/privateWorkspace/School/OS/SP/KIV-RTOS/Odevzdani/src/userspace/semestral_task/main.cpp:132
		ftoa(tmp_buffer, model.C);
    85d4:	ed5b7a07 	vldr	s15, [fp, #-28]	; 0xffffffe4
    85d8:	e24b3010 	sub	r3, fp, #16
    85dc:	eeb00a67 	vmov.f32	s0, s15
    85e0:	e1a00003 	mov	r0, r3
    85e4:	eb0007d0 	bl	a52c <_Z4ftoaPcf>
/mnt/c/user/privateWorkspace/School/OS/SP/KIV-RTOS/Odevzdani/src/userspace/semestral_task/main.cpp:133
		strcat(message_buffer, tmp_buffer);
    85e8:	e24b2010 	sub	r2, fp, #16
    85ec:	e24b30a4 	sub	r3, fp, #164	; 0xa4
    85f0:	e1a01002 	mov	r1, r2
    85f4:	e1a00003 	mov	r0, r3
    85f8:	eb000889 	bl	a824 <_Z6strcatPcPKc>
/mnt/c/user/privateWorkspace/School/OS/SP/KIV-RTOS/Odevzdani/src/userspace/semestral_task/main.cpp:134
		bzero(tmp_buffer, TMP_BUFFER_SIZE);
    85fc:	e24b3010 	sub	r3, fp, #16
    8600:	e3a0100a 	mov	r1, #10
    8604:	e1a00003 	mov	r0, r3
    8608:	eb0008fa 	bl	a9f8 <_Z5bzeroPvi>
/mnt/c/user/privateWorkspace/School/OS/SP/KIV-RTOS/Odevzdani/src/userspace/semestral_task/main.cpp:136

		strcat(message_buffer, ", D = ");
    860c:	e24b30a4 	sub	r3, fp, #164	; 0xa4
    8610:	e59f10f0 	ldr	r1, [pc, #240]	; 8708 <_Z13process_paramPcj+0x240>
    8614:	e1a00003 	mov	r0, r3
    8618:	eb000881 	bl	a824 <_Z6strcatPcPKc>
/mnt/c/user/privateWorkspace/School/OS/SP/KIV-RTOS/Odevzdani/src/userspace/semestral_task/main.cpp:137
		ftoa(tmp_buffer, model.D);
    861c:	ed5b7a06 	vldr	s15, [fp, #-24]	; 0xffffffe8
    8620:	e24b3010 	sub	r3, fp, #16
    8624:	eeb00a67 	vmov.f32	s0, s15
    8628:	e1a00003 	mov	r0, r3
    862c:	eb0007be 	bl	a52c <_Z4ftoaPcf>
/mnt/c/user/privateWorkspace/School/OS/SP/KIV-RTOS/Odevzdani/src/userspace/semestral_task/main.cpp:138
		strcat(message_buffer, tmp_buffer);
    8630:	e24b2010 	sub	r2, fp, #16
    8634:	e24b30a4 	sub	r3, fp, #164	; 0xa4
    8638:	e1a01002 	mov	r1, r2
    863c:	e1a00003 	mov	r0, r3
    8640:	eb000877 	bl	a824 <_Z6strcatPcPKc>
/mnt/c/user/privateWorkspace/School/OS/SP/KIV-RTOS/Odevzdani/src/userspace/semestral_task/main.cpp:139
		bzero(tmp_buffer, TMP_BUFFER_SIZE);
    8644:	e24b3010 	sub	r3, fp, #16
    8648:	e3a0100a 	mov	r1, #10
    864c:	e1a00003 	mov	r0, r3
    8650:	eb0008e8 	bl	a9f8 <_Z5bzeroPvi>
/mnt/c/user/privateWorkspace/School/OS/SP/KIV-RTOS/Odevzdani/src/userspace/semestral_task/main.cpp:141

		strcat(message_buffer, ", E = ");
    8654:	e24b30a4 	sub	r3, fp, #164	; 0xa4
    8658:	e59f10ac 	ldr	r1, [pc, #172]	; 870c <_Z13process_paramPcj+0x244>
    865c:	e1a00003 	mov	r0, r3
    8660:	eb00086f 	bl	a824 <_Z6strcatPcPKc>
/mnt/c/user/privateWorkspace/School/OS/SP/KIV-RTOS/Odevzdani/src/userspace/semestral_task/main.cpp:142
		ftoa(tmp_buffer, model.E);
    8664:	ed5b7a05 	vldr	s15, [fp, #-20]	; 0xffffffec
    8668:	e24b3010 	sub	r3, fp, #16
    866c:	eeb00a67 	vmov.f32	s0, s15
    8670:	e1a00003 	mov	r0, r3
    8674:	eb0007ac 	bl	a52c <_Z4ftoaPcf>
/mnt/c/user/privateWorkspace/School/OS/SP/KIV-RTOS/Odevzdani/src/userspace/semestral_task/main.cpp:143
		strcat(message_buffer, tmp_buffer);
    8678:	e24b2010 	sub	r2, fp, #16
    867c:	e24b30a4 	sub	r3, fp, #164	; 0xa4
    8680:	e1a01002 	mov	r1, r2
    8684:	e1a00003 	mov	r0, r3
    8688:	eb000865 	bl	a824 <_Z6strcatPcPKc>
/mnt/c/user/privateWorkspace/School/OS/SP/KIV-RTOS/Odevzdani/src/userspace/semestral_task/main.cpp:145

		println(file, message_buffer);
    868c:	e24b30a4 	sub	r3, fp, #164	; 0xa4
    8690:	e1a01003 	mov	r1, r3
    8694:	e51b00ac 	ldr	r0, [fp, #-172]	; 0xffffff54
    8698:	eb0004a6 	bl	9938 <_Z7printlnjPKc>
/mnt/c/user/privateWorkspace/School/OS/SP/KIV-RTOS/Odevzdani/src/userspace/semestral_task/main.cpp:146
		return 1;
    869c:	e3a03001 	mov	r3, #1
    86a0:	ea000010 	b	86e8 <_Z13process_paramPcj+0x220>
/mnt/c/user/privateWorkspace/School/OS/SP/KIV-RTOS/Odevzdani/src/userspace/semestral_task/main.cpp:150
	} 
	
	//Stop the counting!
	if (strncmp(buffer, STOP_COMMAND, strlen(STOP_COMMAND)) == 0) {
    86a4:	e59f0064 	ldr	r0, [pc, #100]	; 8710 <_Z13process_paramPcj+0x248>
    86a8:	eb0008bd 	bl	a9a4 <_Z6strlenPKc>
    86ac:	e1a03000 	mov	r3, r0
    86b0:	e1a02003 	mov	r2, r3
    86b4:	e59f1054 	ldr	r1, [pc, #84]	; 8710 <_Z13process_paramPcj+0x248>
    86b8:	e51b00a8 	ldr	r0, [fp, #-168]	; 0xffffff58
    86bc:	eb00088d 	bl	a8f8 <_Z7strncmpPKcS0_i>
    86c0:	e1a03000 	mov	r3, r0
    86c4:	e3530000 	cmp	r3, #0
    86c8:	03a03001 	moveq	r3, #1
    86cc:	13a03000 	movne	r3, #0
    86d0:	e6ef3073 	uxtb	r3, r3
    86d4:	e3530000 	cmp	r3, #0
    86d8:	0a000001 	beq	86e4 <_Z13process_paramPcj+0x21c>
/mnt/c/user/privateWorkspace/School/OS/SP/KIV-RTOS/Odevzdani/src/userspace/semestral_task/main.cpp:151
		return 2;
    86dc:	e3a03002 	mov	r3, #2
    86e0:	ea000000 	b	86e8 <_Z13process_paramPcj+0x220>
/mnt/c/user/privateWorkspace/School/OS/SP/KIV-RTOS/Odevzdani/src/userspace/semestral_task/main.cpp:155
	}

	
	return 0;
    86e4:	e3a03000 	mov	r3, #0
/mnt/c/user/privateWorkspace/School/OS/SP/KIV-RTOS/Odevzdani/src/userspace/semestral_task/main.cpp:156 (discriminator 1)
}
    86e8:	e1a00003 	mov	r0, r3
    86ec:	e24bd004 	sub	sp, fp, #4
    86f0:	e8bd8800 	pop	{fp, pc}
    86f4:	0000b490 	muleq	r0, r0, r4
    86f8:	0000b6f4 	strdeq	fp, [r0], -r4
    86fc:	0000b49c 	muleq	r0, ip, r4
    8700:	0000b4a4 	andeq	fp, r0, r4, lsr #9
    8704:	0000b4ac 	andeq	fp, r0, ip, lsr #9
    8708:	0000b4b4 			; <UNDEFINED> instruction: 0x0000b4b4
    870c:	0000b4bc 			; <UNDEFINED> instruction: 0x0000b4bc
    8710:	0000b4c4 	andeq	fp, r0, r4, asr #9

00008714 <_Z12count_valuesPcjfP10Read_Utils>:
_Z12count_valuesPcjfP10Read_Utils():
/mnt/c/user/privateWorkspace/School/OS/SP/KIV-RTOS/Odevzdani/src/userspace/semestral_task/main.cpp:159

//Process input number and count the values
void count_values(char* buffer, uint32_t file, float input, Read_Utils* read_utils) {
    8714:	e92d4810 	push	{r4, fp, lr}
    8718:	e28db008 	add	fp, sp, #8
    871c:	e24dd034 	sub	sp, sp, #52	; 0x34
    8720:	e50b0030 	str	r0, [fp, #-48]	; 0xffffffd0
    8724:	e50b1034 	str	r1, [fp, #-52]	; 0xffffffcc
    8728:	ed0b0a0e 	vstr	s0, [fp, #-56]	; 0xffffffc8
    872c:	e50b203c 	str	r2, [fp, #-60]	; 0xffffffc4
/mnt/c/user/privateWorkspace/School/OS/SP/KIV-RTOS/Odevzdani/src/userspace/semestral_task/main.cpp:160
	bool stopped_counting = false;
    8730:	e3a03000 	mov	r3, #0
    8734:	e54b300d 	strb	r3, [fp, #-13]
/mnt/c/user/privateWorkspace/School/OS/SP/KIV-RTOS/Odevzdani/src/userspace/semestral_task/main.cpp:161
	bool found_optimal = false;
    8738:	e3a03000 	mov	r3, #0
    873c:	e54b300e 	strb	r3, [fp, #-14]
/mnt/c/user/privateWorkspace/School/OS/SP/KIV-RTOS/Odevzdani/src/userspace/semestral_task/main.cpp:163
	
	if (values_counter < gens_needed) {
    8740:	e59f3378 	ldr	r3, [pc, #888]	; 8ac0 <_Z12count_valuesPcjfP10Read_Utils+0x3ac>
    8744:	e5932000 	ldr	r2, [r3]
    8748:	e59f3374 	ldr	r3, [pc, #884]	; 8ac4 <_Z12count_valuesPcjfP10Read_Utils+0x3b0>
    874c:	e5933000 	ldr	r3, [r3]
    8750:	e1520003 	cmp	r2, r3
    8754:	2a000003 	bcs	8768 <_Z12count_valuesPcjfP10Read_Utils+0x54>
/mnt/c/user/privateWorkspace/School/OS/SP/KIV-RTOS/Odevzdani/src/userspace/semestral_task/main.cpp:164
		println(file, NAN);
    8758:	e59f1368 	ldr	r1, [pc, #872]	; 8ac8 <_Z12count_valuesPcjfP10Read_Utils+0x3b4>
    875c:	e51b0034 	ldr	r0, [fp, #-52]	; 0xffffffcc
    8760:	eb000474 	bl	9938 <_Z7printlnjPKc>
    8764:	ea0000ba 	b	8a54 <_Z12count_valuesPcjfP10Read_Utils+0x340>
/mnt/c/user/privateWorkspace/School/OS/SP/KIV-RTOS/Odevzdani/src/userspace/semestral_task/main.cpp:166
	} else {
		println(file, COUNTING);
    8768:	e59f135c 	ldr	r1, [pc, #860]	; 8acc <_Z12count_valuesPcjfP10Read_Utils+0x3b8>
    876c:	e51b0034 	ldr	r0, [fp, #-52]	; 0xffffffcc
    8770:	eb000470 	bl	9938 <_Z7printlnjPKc>
/mnt/c/user/privateWorkspace/School/OS/SP/KIV-RTOS/Odevzdani/src/userspace/semestral_task/main.cpp:169

		//Prepare the previous input
		float yt = values_buffer[(values_counter - gens_needed) % gens_needed];
    8774:	e59f3354 	ldr	r3, [pc, #852]	; 8ad0 <_Z12count_valuesPcjfP10Read_Utils+0x3bc>
    8778:	e5934000 	ldr	r4, [r3]
    877c:	e59f333c 	ldr	r3, [pc, #828]	; 8ac0 <_Z12count_valuesPcjfP10Read_Utils+0x3ac>
    8780:	e5932000 	ldr	r2, [r3]
    8784:	e59f3338 	ldr	r3, [pc, #824]	; 8ac4 <_Z12count_valuesPcjfP10Read_Utils+0x3b0>
    8788:	e5933000 	ldr	r3, [r3]
    878c:	e0423003 	sub	r3, r2, r3
    8790:	e59f232c 	ldr	r2, [pc, #812]	; 8ac4 <_Z12count_valuesPcjfP10Read_Utils+0x3b0>
    8794:	e5922000 	ldr	r2, [r2]
    8798:	e1a01002 	mov	r1, r2
    879c:	e1a00003 	mov	r0, r3
    87a0:	eb000a84 	bl	b1b8 <__aeabi_uidivmod>
    87a4:	e1a03001 	mov	r3, r1
    87a8:	e1a03103 	lsl	r3, r3, #2
    87ac:	e0843003 	add	r3, r4, r3
    87b0:	e5933000 	ldr	r3, [r3]
    87b4:	e50b3018 	str	r3, [fp, #-24]	; 0xffffffe8
/mnt/c/user/privateWorkspace/School/OS/SP/KIV-RTOS/Odevzdani/src/userspace/semestral_task/main.cpp:172

		//Restore the generation from backup
		gens[0] = gens[2];
    87b8:	e59f3314 	ldr	r3, [pc, #788]	; 8ad4 <_Z12count_valuesPcjfP10Read_Utils+0x3c0>
    87bc:	e5933000 	ldr	r3, [r3]
    87c0:	e59f230c 	ldr	r2, [pc, #780]	; 8ad4 <_Z12count_valuesPcjfP10Read_Utils+0x3c0>
    87c4:	e5922000 	ldr	r2, [r2]
    87c8:	e2833a01 	add	r3, r3, #4096	; 0x1000
    87cc:	e1a00002 	mov	r0, r2
    87d0:	e2833d0b 	add	r3, r3, #704	; 0x2c0
    87d4:	e3a02e96 	mov	r2, #2400	; 0x960
    87d8:	e1a01003 	mov	r1, r3
    87dc:	eb000abd 	bl	b2d8 <memcpy>
/mnt/c/user/privateWorkspace/School/OS/SP/KIV-RTOS/Odevzdani/src/userspace/semestral_task/main.cpp:174

		for (int i = 0; i < GENERATIONS_COUNT; i++) {
    87e0:	e3a03000 	mov	r3, #0
    87e4:	e50b3014 	str	r3, [fp, #-20]	; 0xffffffec
/mnt/c/user/privateWorkspace/School/OS/SP/KIV-RTOS/Odevzdani/src/userspace/semestral_task/main.cpp:174 (discriminator 1)
    87e8:	e51b3014 	ldr	r3, [fp, #-20]	; 0xffffffec
    87ec:	e35300c7 	cmp	r3, #199	; 0xc7
    87f0:	ca000070 	bgt	89b8 <_Z12count_valuesPcjfP10Read_Utils+0x2a4>
/mnt/c/user/privateWorkspace/School/OS/SP/KIV-RTOS/Odevzdani/src/userspace/semestral_task/main.cpp:177
			//It would be best to stop the finding of the generations if we find the optimal value, but it might be too fast.
			//We just skip creating new generation but still add wait using the for cycle below this if statement.
			if (!found_optimal) {
    87f4:	e55b300e 	ldrb	r3, [fp, #-14]
    87f8:	e2233001 	eor	r3, r3, #1
    87fc:	e6ef3073 	uxtb	r3, r3
    8800:	e3530000 	cmp	r3, #0
    8804:	0a000030 	beq	88cc <_Z12count_valuesPcjfP10Read_Utils+0x1b8>
/mnt/c/user/privateWorkspace/School/OS/SP/KIV-RTOS/Odevzdani/src/userspace/semestral_task/main.cpp:178
				gens[0].evaluate_gen(input, file, yt, step_time); //Evaluate the previous generation with current data
    8808:	e59f32c4 	ldr	r3, [pc, #708]	; 8ad4 <_Z12count_valuesPcjfP10Read_Utils+0x3c0>
    880c:	e5933000 	ldr	r3, [r3]
    8810:	e59f22c0 	ldr	r2, [pc, #704]	; 8ad8 <_Z12count_valuesPcjfP10Read_Utils+0x3c4>
    8814:	e5922000 	ldr	r2, [r2]
    8818:	ed5b0a06 	vldr	s1, [fp, #-24]	; 0xffffffe8
    881c:	e51b1034 	ldr	r1, [fp, #-52]	; 0xffffffcc
    8820:	ed1b0a0e 	vldr	s0, [fp, #-56]	; 0xffffffc8
    8824:	e1a00003 	mov	r0, r3
    8828:	eb00028b 	bl	925c <_ZN10Generation12evaluate_genEfjfi>
/mnt/c/user/privateWorkspace/School/OS/SP/KIV-RTOS/Odevzdani/src/userspace/semestral_task/main.cpp:181

				//Validate if we have the best solution already. It will be the first chromosome, evaluate sorts them.
				float bestFitness = gens[0].gen[0].get_fitness();
    882c:	e59f32a0 	ldr	r3, [pc, #672]	; 8ad4 <_Z12count_valuesPcjfP10Read_Utils+0x3c0>
    8830:	e5933000 	ldr	r3, [r3]
    8834:	e1a00003 	mov	r0, r3
    8838:	eb00025e 	bl	91b8 <_ZN10Chromosome11get_fitnessEv>
    883c:	ed0b0a07 	vstr	s0, [fp, #-28]	; 0xffffffe4
/mnt/c/user/privateWorkspace/School/OS/SP/KIV-RTOS/Odevzdani/src/userspace/semestral_task/main.cpp:182
				if (bestFitness > -FITNESS_THRESHOLD && bestFitness < FITNESS_THRESHOLD) {
    8840:	ed5b7a07 	vldr	s15, [fp, #-28]	; 0xffffffe4
    8844:	eeb77ae7 	vcvt.f64.f32	d7, s15
    8848:	ed9f6b98 	vldr	d6, [pc, #608]	; 8ab0 <_Z12count_valuesPcjfP10Read_Utils+0x39c>
    884c:	eeb47bc6 	vcmpe.f64	d7, d6
    8850:	eef1fa10 	vmrs	APSR_nzcv, fpscr
    8854:	da00000b 	ble	8888 <_Z12count_valuesPcjfP10Read_Utils+0x174>
/mnt/c/user/privateWorkspace/School/OS/SP/KIV-RTOS/Odevzdani/src/userspace/semestral_task/main.cpp:182 (discriminator 1)
    8858:	ed5b7a07 	vldr	s15, [fp, #-28]	; 0xffffffe4
    885c:	eeb77ae7 	vcvt.f64.f32	d7, s15
    8860:	ed9f6b94 	vldr	d6, [pc, #592]	; 8ab8 <_Z12count_valuesPcjfP10Read_Utils+0x3a4>
    8864:	eeb47bc6 	vcmpe.f64	d7, d6
    8868:	eef1fa10 	vmrs	APSR_nzcv, fpscr
    886c:	5a000005 	bpl	8888 <_Z12count_valuesPcjfP10Read_Utils+0x174>
/mnt/c/user/privateWorkspace/School/OS/SP/KIV-RTOS/Odevzdani/src/userspace/semestral_task/main.cpp:183
					println(file, FOUND_OPTIMAL);
    8870:	e59f1264 	ldr	r1, [pc, #612]	; 8adc <_Z12count_valuesPcjfP10Read_Utils+0x3c8>
    8874:	e51b0034 	ldr	r0, [fp, #-52]	; 0xffffffcc
    8878:	eb00042e 	bl	9938 <_Z7printlnjPKc>
/mnt/c/user/privateWorkspace/School/OS/SP/KIV-RTOS/Odevzdani/src/userspace/semestral_task/main.cpp:184
					found_optimal = true;
    887c:	e3a03001 	mov	r3, #1
    8880:	e54b300e 	strb	r3, [fp, #-14]
    8884:	ea000010 	b	88cc <_Z12count_valuesPcjfP10Read_Utils+0x1b8>
/mnt/c/user/privateWorkspace/School/OS/SP/KIV-RTOS/Odevzdani/src/userspace/semestral_task/main.cpp:186
				} else {
					gens[0].next_gen(&gens[1]); //Create new generation
    8888:	e59f3244 	ldr	r3, [pc, #580]	; 8ad4 <_Z12count_valuesPcjfP10Read_Utils+0x3c0>
    888c:	e5932000 	ldr	r2, [r3]
    8890:	e59f323c 	ldr	r3, [pc, #572]	; 8ad4 <_Z12count_valuesPcjfP10Read_Utils+0x3c0>
    8894:	e5933000 	ldr	r3, [r3]
    8898:	e2833e96 	add	r3, r3, #2400	; 0x960
    889c:	e1a01003 	mov	r1, r3
    88a0:	e1a00002 	mov	r0, r2
    88a4:	eb0002fe 	bl	94a4 <_ZN10Generation8next_genEPS_>
/mnt/c/user/privateWorkspace/School/OS/SP/KIV-RTOS/Odevzdani/src/userspace/semestral_task/main.cpp:187
					gens[0] = gens[1]; //Replace old with the new. :)
    88a8:	e59f3224 	ldr	r3, [pc, #548]	; 8ad4 <_Z12count_valuesPcjfP10Read_Utils+0x3c0>
    88ac:	e5933000 	ldr	r3, [r3]
    88b0:	e59f221c 	ldr	r2, [pc, #540]	; 8ad4 <_Z12count_valuesPcjfP10Read_Utils+0x3c0>
    88b4:	e5922000 	ldr	r2, [r2]
    88b8:	e1a00002 	mov	r0, r2
    88bc:	e2833e96 	add	r3, r3, #2400	; 0x960
    88c0:	e3a02e96 	mov	r2, #2400	; 0x960
    88c4:	e1a01003 	mov	r1, r3
    88c8:	eb000a82 	bl	b2d8 <memcpy>
/mnt/c/user/privateWorkspace/School/OS/SP/KIV-RTOS/Odevzdani/src/userspace/semestral_task/main.cpp:191
				}
			}
			
			for (volatile int j = 0; j < 1000000; j++) {
    88cc:	e3a03000 	mov	r3, #0
    88d0:	e50b302c 	str	r3, [fp, #-44]	; 0xffffffd4
/mnt/c/user/privateWorkspace/School/OS/SP/KIV-RTOS/Odevzdani/src/userspace/semestral_task/main.cpp:191 (discriminator 3)
    88d4:	e51b302c 	ldr	r3, [fp, #-44]	; 0xffffffd4
    88d8:	e59f2200 	ldr	r2, [pc, #512]	; 8ae0 <_Z12count_valuesPcjfP10Read_Utils+0x3cc>
    88dc:	e1530002 	cmp	r3, r2
    88e0:	b3a03001 	movlt	r3, #1
    88e4:	a3a03000 	movge	r3, #0
    88e8:	e6ef3073 	uxtb	r3, r3
    88ec:	e3530000 	cmp	r3, #0
    88f0:	0a000003 	beq	8904 <_Z12count_valuesPcjfP10Read_Utils+0x1f0>
/mnt/c/user/privateWorkspace/School/OS/SP/KIV-RTOS/Odevzdani/src/userspace/semestral_task/main.cpp:191 (discriminator 2)
    88f4:	e51b302c 	ldr	r3, [fp, #-44]	; 0xffffffd4
    88f8:	e2833001 	add	r3, r3, #1
    88fc:	e50b302c 	str	r3, [fp, #-44]	; 0xffffffd4
    8900:	eafffff3 	b	88d4 <_Z12count_valuesPcjfP10Read_Utils+0x1c0>
/mnt/c/user/privateWorkspace/School/OS/SP/KIV-RTOS/Odevzdani/src/userspace/semestral_task/main.cpp:196
				//Added fake work :)
			}

			//Process commands that might come during counting - UART should be at least a bit responsive.
			uint32_t read_chars = read_utils->read_line(buffer, file, false);
    8904:	e3a03000 	mov	r3, #0
    8908:	e51b2034 	ldr	r2, [fp, #-52]	; 0xffffffcc
    890c:	e51b1030 	ldr	r1, [fp, #-48]	; 0xffffffd0
    8910:	e51b003c 	ldr	r0, [fp, #-60]	; 0xffffffc4
    8914:	eb00087c 	bl	ab0c <_ZN10Read_Utils9read_lineEPcjb>
    8918:	e50b0020 	str	r0, [fp, #-32]	; 0xffffffe0
/mnt/c/user/privateWorkspace/School/OS/SP/KIV-RTOS/Odevzdani/src/userspace/semestral_task/main.cpp:197
			if (read_chars != 0) {
    891c:	e51b3020 	ldr	r3, [fp, #-32]	; 0xffffffe0
    8920:	e3530000 	cmp	r3, #0
    8924:	0a00001f 	beq	89a8 <_Z12count_valuesPcjfP10Read_Utils+0x294>
/mnt/c/user/privateWorkspace/School/OS/SP/KIV-RTOS/Odevzdani/src/userspace/semestral_task/main.cpp:198
				int processFlag = process_param(buffer, file);
    8928:	e51b1034 	ldr	r1, [fp, #-52]	; 0xffffffcc
    892c:	e51b0030 	ldr	r0, [fp, #-48]	; 0xffffffd0
    8930:	ebfffee4 	bl	84c8 <_Z13process_paramPcj>
    8934:	e50b0024 	str	r0, [fp, #-36]	; 0xffffffdc
/mnt/c/user/privateWorkspace/School/OS/SP/KIV-RTOS/Odevzdani/src/userspace/semestral_task/main.cpp:199
				if (processFlag == 0) {
    8938:	e51b3024 	ldr	r3, [fp, #-36]	; 0xffffffdc
    893c:	e3530000 	cmp	r3, #0
    8940:	1a000005 	bne	895c <_Z12count_valuesPcjfP10Read_Utils+0x248>
/mnt/c/user/privateWorkspace/School/OS/SP/KIV-RTOS/Odevzdani/src/userspace/semestral_task/main.cpp:200
					input_value_received_while_counting = read_float_val(buffer, file);
    8944:	e51b1034 	ldr	r1, [fp, #-52]	; 0xffffffcc
    8948:	e51b0030 	ldr	r0, [fp, #-48]	; 0xffffffd0
    894c:	ebfffea4 	bl	83e4 <_Z14read_float_valPcj>
    8950:	eef07a40 	vmov.f32	s15, s0
    8954:	e59f3188 	ldr	r3, [pc, #392]	; 8ae4 <_Z12count_valuesPcjfP10Read_Utils+0x3d0>
    8958:	edc37a00 	vstr	s15, [r3]
/mnt/c/user/privateWorkspace/School/OS/SP/KIV-RTOS/Odevzdani/src/userspace/semestral_task/main.cpp:204
				}
				
				//Processing stop flag
				if (processFlag == 2) {
    895c:	e51b3024 	ldr	r3, [fp, #-36]	; 0xffffffdc
    8960:	e3530002 	cmp	r3, #2
    8964:	1a00000f 	bne	89a8 <_Z12count_valuesPcjfP10Read_Utils+0x294>
/mnt/c/user/privateWorkspace/School/OS/SP/KIV-RTOS/Odevzdani/src/userspace/semestral_task/main.cpp:206
					//Restore the generation from backup
					println(file, CANCELED);
    8968:	e59f1178 	ldr	r1, [pc, #376]	; 8ae8 <_Z12count_valuesPcjfP10Read_Utils+0x3d4>
    896c:	e51b0034 	ldr	r0, [fp, #-52]	; 0xffffffcc
    8970:	eb0003f0 	bl	9938 <_Z7printlnjPKc>
/mnt/c/user/privateWorkspace/School/OS/SP/KIV-RTOS/Odevzdani/src/userspace/semestral_task/main.cpp:207
					gens[0] = gens[2];
    8974:	e59f3158 	ldr	r3, [pc, #344]	; 8ad4 <_Z12count_valuesPcjfP10Read_Utils+0x3c0>
    8978:	e5933000 	ldr	r3, [r3]
    897c:	e59f2150 	ldr	r2, [pc, #336]	; 8ad4 <_Z12count_valuesPcjfP10Read_Utils+0x3c0>
    8980:	e5922000 	ldr	r2, [r2]
    8984:	e2833a01 	add	r3, r3, #4096	; 0x1000
    8988:	e1a00002 	mov	r0, r2
    898c:	e2833d0b 	add	r3, r3, #704	; 0x2c0
    8990:	e3a02e96 	mov	r2, #2400	; 0x960
    8994:	e1a01003 	mov	r1, r3
    8998:	eb000a4e 	bl	b2d8 <memcpy>
/mnt/c/user/privateWorkspace/School/OS/SP/KIV-RTOS/Odevzdani/src/userspace/semestral_task/main.cpp:208
					stopped_counting = true;
    899c:	e3a03001 	mov	r3, #1
    89a0:	e54b300d 	strb	r3, [fp, #-13]
/mnt/c/user/privateWorkspace/School/OS/SP/KIV-RTOS/Odevzdani/src/userspace/semestral_task/main.cpp:209
					break;
    89a4:	ea000003 	b	89b8 <_Z12count_valuesPcjfP10Read_Utils+0x2a4>
/mnt/c/user/privateWorkspace/School/OS/SP/KIV-RTOS/Odevzdani/src/userspace/semestral_task/main.cpp:174 (discriminator 2)
		for (int i = 0; i < GENERATIONS_COUNT; i++) {
    89a8:	e51b3014 	ldr	r3, [fp, #-20]	; 0xffffffec
    89ac:	e2833001 	add	r3, r3, #1
    89b0:	e50b3014 	str	r3, [fp, #-20]	; 0xffffffec
    89b4:	eaffff8b 	b	87e8 <_Z12count_valuesPcjfP10Read_Utils+0xd4>
/mnt/c/user/privateWorkspace/School/OS/SP/KIV-RTOS/Odevzdani/src/userspace/semestral_task/main.cpp:215
				}
			}
		}

		//Prepare the new generation only if we didn't stop counting using the command - the generation is already prepared in the correct index.
		if (!stopped_counting) {
    89b8:	e55b300d 	ldrb	r3, [fp, #-13]
    89bc:	e2233001 	eor	r3, r3, #1
    89c0:	e6ef3073 	uxtb	r3, r3
    89c4:	e3530000 	cmp	r3, #0
    89c8:	0a000013 	beq	8a1c <_Z12count_valuesPcjfP10Read_Utils+0x308>
/mnt/c/user/privateWorkspace/School/OS/SP/KIV-RTOS/Odevzdani/src/userspace/semestral_task/main.cpp:217
			//Store the computed new generation to the backup slot
			gens[2] = gens[0];
    89cc:	e59f3100 	ldr	r3, [pc, #256]	; 8ad4 <_Z12count_valuesPcjfP10Read_Utils+0x3c0>
    89d0:	e5932000 	ldr	r2, [r3]
    89d4:	e59f30f8 	ldr	r3, [pc, #248]	; 8ad4 <_Z12count_valuesPcjfP10Read_Utils+0x3c0>
    89d8:	e5933000 	ldr	r3, [r3]
    89dc:	e2833d4b 	add	r3, r3, #4800	; 0x12c0
    89e0:	e1a00003 	mov	r0, r3
    89e4:	e1a01002 	mov	r1, r2
    89e8:	e3a03e96 	mov	r3, #2400	; 0x960
    89ec:	e1a02003 	mov	r2, r3
    89f0:	eb000a38 	bl	b2d8 <memcpy>
/mnt/c/user/privateWorkspace/School/OS/SP/KIV-RTOS/Odevzdani/src/userspace/semestral_task/main.cpp:220
			
			//Evaluate the stored generation so we can use it
			gens[2].evaluate_gen(input, file, yt, step_time); 
    89f4:	e59f30d8 	ldr	r3, [pc, #216]	; 8ad4 <_Z12count_valuesPcjfP10Read_Utils+0x3c0>
    89f8:	e5933000 	ldr	r3, [r3]
    89fc:	e2833d4b 	add	r3, r3, #4800	; 0x12c0
    8a00:	e59f20d0 	ldr	r2, [pc, #208]	; 8ad8 <_Z12count_valuesPcjfP10Read_Utils+0x3c4>
    8a04:	e5922000 	ldr	r2, [r2]
    8a08:	ed5b0a06 	vldr	s1, [fp, #-24]	; 0xffffffe8
    8a0c:	e51b1034 	ldr	r1, [fp, #-52]	; 0xffffffcc
    8a10:	ed1b0a0e 	vldr	s0, [fp, #-56]	; 0xffffffc8
    8a14:	e1a00003 	mov	r0, r3
    8a18:	eb00020f 	bl	925c <_ZN10Generation12evaluate_genEfjfi>
/mnt/c/user/privateWorkspace/School/OS/SP/KIV-RTOS/Odevzdani/src/userspace/semestral_task/main.cpp:224
		}

		// Get the new prediction from the latest model.
		float prediction = gens[2].predict(input, step_time);
    8a1c:	e59f30b0 	ldr	r3, [pc, #176]	; 8ad4 <_Z12count_valuesPcjfP10Read_Utils+0x3c0>
    8a20:	e5933000 	ldr	r3, [r3]
    8a24:	e2833d4b 	add	r3, r3, #4800	; 0x12c0
    8a28:	e59f20a8 	ldr	r2, [pc, #168]	; 8ad8 <_Z12count_valuesPcjfP10Read_Utils+0x3c4>
    8a2c:	e5922000 	ldr	r2, [r2]
    8a30:	e1a01002 	mov	r1, r2
    8a34:	ed1b0a0e 	vldr	s0, [fp, #-56]	; 0xffffffc8
    8a38:	e1a00003 	mov	r0, r3
    8a3c:	eb000244 	bl	9354 <_ZN10Generation7predictEfi>
    8a40:	ed0b0a0a 	vstr	s0, [fp, #-40]	; 0xffffffd8
/mnt/c/user/privateWorkspace/School/OS/SP/KIV-RTOS/Odevzdani/src/userspace/semestral_task/main.cpp:227
			
		//Print the prediction value to the user
		print_str_and_float(file, PREDICTION, prediction);
    8a44:	ed1b0a0a 	vldr	s0, [fp, #-40]	; 0xffffffd8
    8a48:	e59f109c 	ldr	r1, [pc, #156]	; 8aec <_Z12count_valuesPcjfP10Read_Utils+0x3d8>
    8a4c:	e51b0034 	ldr	r0, [fp, #-52]	; 0xffffffcc
    8a50:	eb0003d1 	bl	999c <_Z19print_str_and_floatjPKcf>
/mnt/c/user/privateWorkspace/School/OS/SP/KIV-RTOS/Odevzdani/src/userspace/semestral_task/main.cpp:231
	}

	//Store the value into the circular buffer and increment counter
	values_buffer[values_counter % gens_needed] = input;
    8a54:	e59f3074 	ldr	r3, [pc, #116]	; 8ad0 <_Z12count_valuesPcjfP10Read_Utils+0x3bc>
    8a58:	e5934000 	ldr	r4, [r3]
    8a5c:	e59f305c 	ldr	r3, [pc, #92]	; 8ac0 <_Z12count_valuesPcjfP10Read_Utils+0x3ac>
    8a60:	e5933000 	ldr	r3, [r3]
    8a64:	e59f2058 	ldr	r2, [pc, #88]	; 8ac4 <_Z12count_valuesPcjfP10Read_Utils+0x3b0>
    8a68:	e5922000 	ldr	r2, [r2]
    8a6c:	e1a01002 	mov	r1, r2
    8a70:	e1a00003 	mov	r0, r3
    8a74:	eb0009cf 	bl	b1b8 <__aeabi_uidivmod>
    8a78:	e1a03001 	mov	r3, r1
    8a7c:	e1a03103 	lsl	r3, r3, #2
    8a80:	e0843003 	add	r3, r4, r3
    8a84:	e51b2038 	ldr	r2, [fp, #-56]	; 0xffffffc8
    8a88:	e5832000 	str	r2, [r3]
/mnt/c/user/privateWorkspace/School/OS/SP/KIV-RTOS/Odevzdani/src/userspace/semestral_task/main.cpp:232
	values_counter++;
    8a8c:	e59f302c 	ldr	r3, [pc, #44]	; 8ac0 <_Z12count_valuesPcjfP10Read_Utils+0x3ac>
    8a90:	e5933000 	ldr	r3, [r3]
    8a94:	e2833001 	add	r3, r3, #1
    8a98:	e59f2020 	ldr	r2, [pc, #32]	; 8ac0 <_Z12count_valuesPcjfP10Read_Utils+0x3ac>
    8a9c:	e5823000 	str	r3, [r2]
/mnt/c/user/privateWorkspace/School/OS/SP/KIV-RTOS/Odevzdani/src/userspace/semestral_task/main.cpp:233
}
    8aa0:	e320f000 	nop	{0}
    8aa4:	e24bd008 	sub	sp, fp, #8
    8aa8:	e8bd8810 	pop	{r4, fp, pc}
    8aac:	e320f000 	nop	{0}
    8ab0:	e2308c3a 	eors	r8, r0, #14848	; 0x3a00
    8ab4:	be45798e 	vmlalt.f16	s15, s11, s28	; <UNPREDICTABLE>
    8ab8:	e2308c3a 	eors	r8, r0, #14848	; 0x3a00
    8abc:	3e45798e 	vmlacc.f16	s15, s11, s28	; <UNPREDICTABLE>
    8ac0:	0000b6fc 	strdeq	fp, [r0], -ip
    8ac4:	0000b6e4 	andeq	fp, r0, r4, ror #13
    8ac8:	0000b4cc 	andeq	fp, r0, ip, asr #9
    8acc:	0000b4d0 	ldrdeq	fp, [r0], -r0
    8ad0:	0000b6f8 	strdeq	fp, [r0], -r8
    8ad4:	0000b6f4 	strdeq	fp, [r0], -r4
    8ad8:	0000b6ec 	andeq	fp, r0, ip, ror #13
    8adc:	0000b4dc 	ldrdeq	fp, [r0], -ip
    8ae0:	000f4240 	andeq	r4, pc, r0, asr #4
    8ae4:	0000b6e0 	andeq	fp, r0, r0, ror #13
    8ae8:	0000b4fc 	strdeq	fp, [r0], -ip
    8aec:	0000b510 	andeq	fp, r0, r0, lsl r5

00008af0 <main>:
main():
/mnt/c/user/privateWorkspace/School/OS/SP/KIV-RTOS/Odevzdani/src/userspace/semestral_task/main.cpp:236

int main(int argc, char** argv)
{
    8af0:	e92d4810 	push	{r4, fp, lr}
    8af4:	e28db008 	add	fp, sp, #8
    8af8:	e24ddf49 	sub	sp, sp, #292	; 0x124
    8afc:	e50b0128 	str	r0, [fp, #-296]	; 0xfffffed8
    8b00:	e50b112c 	str	r1, [fp, #-300]	; 0xfffffed4
/mnt/c/user/privateWorkspace/School/OS/SP/KIV-RTOS/Odevzdani/src/userspace/semestral_task/main.cpp:237
	Read_Utils read_utils;
    8b04:	e24b30a0 	sub	r3, fp, #160	; 0xa0
    8b08:	e1a00003 	mov	r0, r3
    8b0c:	eb0007f3 	bl	aae0 <_ZN10Read_UtilsC1Ev>
/mnt/c/user/privateWorkspace/School/OS/SP/KIV-RTOS/Odevzdani/src/userspace/semestral_task/main.cpp:240

	char buffer[MESSAGE_BUFFER_SIZE];
	bzero(buffer, MESSAGE_BUFFER_SIZE);
    8b10:	e24b3e12 	sub	r3, fp, #288	; 0x120
    8b14:	e3a01080 	mov	r1, #128	; 0x80
    8b18:	e1a00003 	mov	r0, r3
    8b1c:	eb0007b5 	bl	a9f8 <_Z5bzeroPvi>
/mnt/c/user/privateWorkspace/School/OS/SP/KIV-RTOS/Odevzdani/src/userspace/semestral_task/main.cpp:242

	uint32_t uart_file = init_uart();
    8b20:	ebfffdc2 	bl	8230 <_Z9init_uartv>
    8b24:	e50b0010 	str	r0, [fp, #-16]
/mnt/c/user/privateWorkspace/School/OS/SP/KIV-RTOS/Odevzdani/src/userspace/semestral_task/main.cpp:243
	rnd.set_generator(open("DEV:trng", NFile_Open_Mode::Read_Write)); //Init random generator singleton
    8b28:	e3a01002 	mov	r1, #2
    8b2c:	e59f022c 	ldr	r0, [pc, #556]	; 8d60 <main+0x270>
    8b30:	eb0003d4 	bl	9a88 <_Z4openPKc15NFile_Open_Mode>
    8b34:	e1a03000 	mov	r3, r0
    8b38:	e1a01003 	mov	r1, r3
    8b3c:	e59f0220 	ldr	r0, [pc, #544]	; 8d64 <main+0x274>
    8b40:	eb000899 	bl	adac <_ZN13Rnd_Generator13set_generatorEj>
/mnt/c/user/privateWorkspace/School/OS/SP/KIV-RTOS/Odevzdani/src/userspace/semestral_task/main.cpp:246

	//Print intro message
	println(uart_file, INTRO_LINE1);
    8b44:	e59f121c 	ldr	r1, [pc, #540]	; 8d68 <main+0x278>
    8b48:	e51b0010 	ldr	r0, [fp, #-16]
    8b4c:	eb000379 	bl	9938 <_Z7printlnjPKc>
/mnt/c/user/privateWorkspace/School/OS/SP/KIV-RTOS/Odevzdani/src/userspace/semestral_task/main.cpp:247
	println(uart_file, INTRO_LINE2);
    8b50:	e59f1214 	ldr	r1, [pc, #532]	; 8d6c <main+0x27c>
    8b54:	e51b0010 	ldr	r0, [fp, #-16]
    8b58:	eb000376 	bl	9938 <_Z7printlnjPKc>
/mnt/c/user/privateWorkspace/School/OS/SP/KIV-RTOS/Odevzdani/src/userspace/semestral_task/main.cpp:248
	println(uart_file, INTRO_LINE3);
    8b5c:	e59f120c 	ldr	r1, [pc, #524]	; 8d70 <main+0x280>
    8b60:	e51b0010 	ldr	r0, [fp, #-16]
    8b64:	eb000373 	bl	9938 <_Z7printlnjPKc>
/mnt/c/user/privateWorkspace/School/OS/SP/KIV-RTOS/Odevzdani/src/userspace/semestral_task/main.cpp:249
	println(uart_file, INTRO_LINE4);
    8b68:	e59f1204 	ldr	r1, [pc, #516]	; 8d74 <main+0x284>
    8b6c:	e51b0010 	ldr	r0, [fp, #-16]
    8b70:	eb000370 	bl	9938 <_Z7printlnjPKc>
/mnt/c/user/privateWorkspace/School/OS/SP/KIV-RTOS/Odevzdani/src/userspace/semestral_task/main.cpp:252

	//Read step and prediction time from user
	step_time = read_step_time(buffer, uart_file, &read_utils);
    8b74:	e24b20a0 	sub	r2, fp, #160	; 0xa0
    8b78:	e24b3e12 	sub	r3, fp, #288	; 0x120
    8b7c:	e51b1010 	ldr	r1, [fp, #-16]
    8b80:	e1a00003 	mov	r0, r3
    8b84:	ebfffe2f 	bl	8448 <_Z14read_step_timePcjP10Read_Utils>
    8b88:	e1a03000 	mov	r3, r0
    8b8c:	e59f21e4 	ldr	r2, [pc, #484]	; 8d78 <main+0x288>
    8b90:	e5823000 	str	r3, [r2]
/mnt/c/user/privateWorkspace/School/OS/SP/KIV-RTOS/Odevzdani/src/userspace/semestral_task/main.cpp:253
	pred_time = read_prediction_time(buffer, uart_file, &read_utils);
    8b94:	e24b20a0 	sub	r2, fp, #160	; 0xa0
    8b98:	e24b3e12 	sub	r3, fp, #288	; 0x120
    8b9c:	e51b1010 	ldr	r1, [fp, #-16]
    8ba0:	e1a00003 	mov	r0, r3
    8ba4:	ebfffe37 	bl	8488 <_Z20read_prediction_timePcjP10Read_Utils>
    8ba8:	e1a03000 	mov	r3, r0
    8bac:	e59f21c8 	ldr	r2, [pc, #456]	; 8d7c <main+0x28c>
    8bb0:	e5823000 	str	r3, [r2]
/mnt/c/user/privateWorkspace/School/OS/SP/KIV-RTOS/Odevzdani/src/userspace/semestral_task/main.cpp:256

	//Prepare generation values
	gens_needed = (pred_time / step_time) + ((pred_time % step_time) != 0);
    8bb4:	e59f31c0 	ldr	r3, [pc, #448]	; 8d7c <main+0x28c>
    8bb8:	e5933000 	ldr	r3, [r3]
    8bbc:	e59f21b4 	ldr	r2, [pc, #436]	; 8d78 <main+0x288>
    8bc0:	e5922000 	ldr	r2, [r2]
    8bc4:	e1a01002 	mov	r1, r2
    8bc8:	e1a00003 	mov	r0, r3
    8bcc:	eb000981 	bl	b1d8 <__divsi3>
    8bd0:	e1a03000 	mov	r3, r0
    8bd4:	e1a04003 	mov	r4, r3
    8bd8:	e59f319c 	ldr	r3, [pc, #412]	; 8d7c <main+0x28c>
    8bdc:	e5933000 	ldr	r3, [r3]
    8be0:	e59f2190 	ldr	r2, [pc, #400]	; 8d78 <main+0x288>
    8be4:	e5922000 	ldr	r2, [r2]
    8be8:	e1a01002 	mov	r1, r2
    8bec:	e1a00003 	mov	r0, r3
    8bf0:	eb0009af 	bl	b2b4 <__aeabi_idivmod>
    8bf4:	e1a03001 	mov	r3, r1
    8bf8:	e3530000 	cmp	r3, #0
    8bfc:	13a03001 	movne	r3, #1
    8c00:	03a03000 	moveq	r3, #0
    8c04:	e6ef3073 	uxtb	r3, r3
    8c08:	e0843003 	add	r3, r4, r3
    8c0c:	e1a02003 	mov	r2, r3
    8c10:	e59f3168 	ldr	r3, [pc, #360]	; 8d80 <main+0x290>
    8c14:	e5832000 	str	r2, [r3]
/mnt/c/user/privateWorkspace/School/OS/SP/KIV-RTOS/Odevzdani/src/userspace/semestral_task/main.cpp:257
	gens = reinterpret_cast<Generation*>(malloc(3 * sizeof(Generation))); //Store old and new generation and backup of the previous generation
    8c18:	e59f0164 	ldr	r0, [pc, #356]	; 8d84 <main+0x294>
    8c1c:	eb000493 	bl	9e70 <_Z6mallocj>
    8c20:	e1a03000 	mov	r3, r0
    8c24:	e59f215c 	ldr	r2, [pc, #348]	; 8d88 <main+0x298>
    8c28:	e5823000 	str	r3, [r2]
/mnt/c/user/privateWorkspace/School/OS/SP/KIV-RTOS/Odevzdani/src/userspace/semestral_task/main.cpp:258
	values_buffer = reinterpret_cast<float*>(malloc(gens_needed * sizeof(float)));
    8c2c:	e59f314c 	ldr	r3, [pc, #332]	; 8d80 <main+0x290>
    8c30:	e5933000 	ldr	r3, [r3]
    8c34:	e1a03103 	lsl	r3, r3, #2
    8c38:	e1a00003 	mov	r0, r3
    8c3c:	eb00048b 	bl	9e70 <_Z6mallocj>
    8c40:	e1a03000 	mov	r3, r0
    8c44:	e59f2140 	ldr	r2, [pc, #320]	; 8d8c <main+0x29c>
    8c48:	e5823000 	str	r3, [r2]
/mnt/c/user/privateWorkspace/School/OS/SP/KIV-RTOS/Odevzdani/src/userspace/semestral_task/main.cpp:261

	// init first generation randomly - Save it to the backup index
	gens[2].init_random();
    8c4c:	e59f3134 	ldr	r3, [pc, #308]	; 8d88 <main+0x298>
    8c50:	e5933000 	ldr	r3, [r3]
    8c54:	e2833d4b 	add	r3, r3, #4800	; 0x12c0
    8c58:	e1a00003 	mov	r0, r3
    8c5c:	eb0001a3 	bl	92f0 <_ZN10Generation11init_randomEv>
/mnt/c/user/privateWorkspace/School/OS/SP/KIV-RTOS/Odevzdani/src/userspace/semestral_task/main.cpp:267

	//Generation loop
	while (true)
	{
		//If we received value during previous counting, we want to count it immediately before reading another value from the user.
		if (input_value_received_while_counting != NAN_FLOAT) {
    8c60:	e59f3128 	ldr	r3, [pc, #296]	; 8d90 <main+0x2a0>
    8c64:	edd37a00 	vldr	s15, [r3]
    8c68:	ed9f7a3b 	vldr	s14, [pc, #236]	; 8d5c <main+0x26c>
    8c6c:	eef47a47 	vcmp.f32	s15, s14
    8c70:	eef1fa10 	vmrs	APSR_nzcv, fpscr
    8c74:	0a00000b 	beq	8ca8 <main+0x1b8>
/mnt/c/user/privateWorkspace/School/OS/SP/KIV-RTOS/Odevzdani/src/userspace/semestral_task/main.cpp:268 (discriminator 1)
			count_values(buffer, uart_file, input_value_received_while_counting, &read_utils);
    8c78:	e59f3110 	ldr	r3, [pc, #272]	; 8d90 <main+0x2a0>
    8c7c:	edd37a00 	vldr	s15, [r3]
    8c80:	e24b20a0 	sub	r2, fp, #160	; 0xa0
    8c84:	e24b3e12 	sub	r3, fp, #288	; 0x120
    8c88:	eeb00a67 	vmov.f32	s0, s15
    8c8c:	e51b1010 	ldr	r1, [fp, #-16]
    8c90:	e1a00003 	mov	r0, r3
    8c94:	ebfffe9e 	bl	8714 <_Z12count_valuesPcjfP10Read_Utils>
/mnt/c/user/privateWorkspace/School/OS/SP/KIV-RTOS/Odevzdani/src/userspace/semestral_task/main.cpp:269 (discriminator 1)
			input_value_received_while_counting = NAN_FLOAT;
    8c98:	e59f30f0 	ldr	r3, [pc, #240]	; 8d90 <main+0x2a0>
    8c9c:	e59f20f0 	ldr	r2, [pc, #240]	; 8d94 <main+0x2a4>
    8ca0:	e5832000 	str	r2, [r3]
/mnt/c/user/privateWorkspace/School/OS/SP/KIV-RTOS/Odevzdani/src/userspace/semestral_task/main.cpp:270 (discriminator 1)
			continue;
    8ca4:	ea00002b 	b	8d58 <main+0x268>
/mnt/c/user/privateWorkspace/School/OS/SP/KIV-RTOS/Odevzdani/src/userspace/semestral_task/main.cpp:274
		}

		//Read value from the user - if read_line is blocking, then it waits for the file to notify the process.
		fputs(uart_file, WRITE_SYMBOL);
    8ca8:	e59f10e8 	ldr	r1, [pc, #232]	; 8d98 <main+0x2a8>
    8cac:	e51b0010 	ldr	r0, [fp, #-16]
    8cb0:	eb000311 	bl	98fc <_Z5fputsjPKc>
/mnt/c/user/privateWorkspace/School/OS/SP/KIV-RTOS/Odevzdani/src/userspace/semestral_task/main.cpp:275
		bzero(buffer, MESSAGE_BUFFER_SIZE);
    8cb4:	e24b3e12 	sub	r3, fp, #288	; 0x120
    8cb8:	e3a01080 	mov	r1, #128	; 0x80
    8cbc:	e1a00003 	mov	r0, r3
    8cc0:	eb00074c 	bl	a9f8 <_Z5bzeroPvi>
/mnt/c/user/privateWorkspace/School/OS/SP/KIV-RTOS/Odevzdani/src/userspace/semestral_task/main.cpp:276
		uint32_t read_chars = read_utils.read_line(buffer, uart_file, true);
    8cc4:	e24b1e12 	sub	r1, fp, #288	; 0x120
    8cc8:	e24b00a0 	sub	r0, fp, #160	; 0xa0
    8ccc:	e3a03001 	mov	r3, #1
    8cd0:	e51b2010 	ldr	r2, [fp, #-16]
    8cd4:	eb00078c 	bl	ab0c <_ZN10Read_Utils9read_lineEPcjb>
    8cd8:	e50b0014 	str	r0, [fp, #-20]	; 0xffffffec
/mnt/c/user/privateWorkspace/School/OS/SP/KIV-RTOS/Odevzdani/src/userspace/semestral_task/main.cpp:279

		//Process the input 
		if (process_param(buffer, uart_file) == 0) {
    8cdc:	e24b3e12 	sub	r3, fp, #288	; 0x120
    8ce0:	e51b1010 	ldr	r1, [fp, #-16]
    8ce4:	e1a00003 	mov	r0, r3
    8ce8:	ebfffdf6 	bl	84c8 <_Z13process_paramPcj>
    8cec:	e1a03000 	mov	r3, r0
    8cf0:	e3530000 	cmp	r3, #0
    8cf4:	03a03001 	moveq	r3, #1
    8cf8:	13a03000 	movne	r3, #0
    8cfc:	e6ef3073 	uxtb	r3, r3
    8d00:	e3530000 	cmp	r3, #0
    8d04:	0affffd5 	beq	8c60 <main+0x170>
/mnt/c/user/privateWorkspace/School/OS/SP/KIV-RTOS/Odevzdani/src/userspace/semestral_task/main.cpp:280
			float input_value = read_float_val(buffer, uart_file);
    8d08:	e24b3e12 	sub	r3, fp, #288	; 0x120
    8d0c:	e51b1010 	ldr	r1, [fp, #-16]
    8d10:	e1a00003 	mov	r0, r3
    8d14:	ebfffdb2 	bl	83e4 <_Z14read_float_valPcj>
    8d18:	ed0b0a06 	vstr	s0, [fp, #-24]	; 0xffffffe8
/mnt/c/user/privateWorkspace/School/OS/SP/KIV-RTOS/Odevzdani/src/userspace/semestral_task/main.cpp:282

			if (input_value == NAN_FLOAT) {
    8d1c:	ed5b7a06 	vldr	s15, [fp, #-24]	; 0xffffffe8
    8d20:	ed9f7a0d 	vldr	s14, [pc, #52]	; 8d5c <main+0x26c>
    8d24:	eef47a47 	vcmp.f32	s15, s14
    8d28:	eef1fa10 	vmrs	APSR_nzcv, fpscr
    8d2c:	1a000003 	bne	8d40 <main+0x250>
/mnt/c/user/privateWorkspace/School/OS/SP/KIV-RTOS/Odevzdani/src/userspace/semestral_task/main.cpp:283
				println(uart_file, INCORRECT_VALUE);
    8d30:	e59f1064 	ldr	r1, [pc, #100]	; 8d9c <main+0x2ac>
    8d34:	e51b0010 	ldr	r0, [fp, #-16]
    8d38:	eb0002fe 	bl	9938 <_Z7printlnjPKc>
    8d3c:	eaffffc7 	b	8c60 <main+0x170>
/mnt/c/user/privateWorkspace/School/OS/SP/KIV-RTOS/Odevzdani/src/userspace/semestral_task/main.cpp:285
			} else {
				count_values(buffer, uart_file, input_value, &read_utils);
    8d40:	e24b20a0 	sub	r2, fp, #160	; 0xa0
    8d44:	e24b3e12 	sub	r3, fp, #288	; 0x120
    8d48:	ed1b0a06 	vldr	s0, [fp, #-24]	; 0xffffffe8
    8d4c:	e51b1010 	ldr	r1, [fp, #-16]
    8d50:	e1a00003 	mov	r0, r3
    8d54:	ebfffe6e 	bl	8714 <_Z12count_valuesPcjfP10Read_Utils>
/mnt/c/user/privateWorkspace/School/OS/SP/KIV-RTOS/Odevzdani/src/userspace/semestral_task/main.cpp:288 (discriminator 1)
			}
		}		
	}
    8d58:	eaffffc0 	b	8c60 <main+0x170>
    8d5c:	bf800000 	svclt	0x00800000
    8d60:	0000b51c 	andeq	fp, r0, ip, lsl r5
    8d64:	0000b700 	andeq	fp, r0, r0, lsl #14
    8d68:	0000b528 	andeq	fp, r0, r8, lsr #10
    8d6c:	0000b534 	andeq	fp, r0, r4, lsr r5
    8d70:	0000b558 	andeq	fp, r0, r8, asr r5
    8d74:	0000b5b0 			; <UNDEFINED> instruction: 0x0000b5b0
    8d78:	0000b6ec 	andeq	fp, r0, ip, ror #13
    8d7c:	0000b6f0 	strdeq	fp, [r0], -r0
    8d80:	0000b6e4 	andeq	fp, r0, r4, ror #13
    8d84:	00001c20 	andeq	r1, r0, r0, lsr #24
    8d88:	0000b6f4 	strdeq	fp, [r0], -r4
    8d8c:	0000b6f8 	strdeq	fp, [r0], -r8
    8d90:	0000b6e0 	andeq	fp, r0, r0, ror #13
    8d94:	bf800000 	svclt	0x00800000
    8d98:	0000b42c 	andeq	fp, r0, ip, lsr #8
    8d9c:	0000b444 	andeq	fp, r0, r4, asr #8

00008da0 <_ZN10ChromosomeltERKS_>:
_ZN10ChromosomeltERKS_():
/mnt/c/user/privateWorkspace/School/OS/SP/KIV-RTOS/Odevzdani/src/userspace/semestral_task/src/evolution/chromosome.cpp:10

/**
 *  Operators that are necessary for comparing two chromosomes together. Used in quicksort.
 */
bool Chromosome::operator < (Chromosome const &obj)
{
    8da0:	e52db004 	push	{fp}		; (str fp, [sp, #-4]!)
    8da4:	e28db000 	add	fp, sp, #0
    8da8:	e24dd00c 	sub	sp, sp, #12
    8dac:	e50b0008 	str	r0, [fp, #-8]
    8db0:	e50b100c 	str	r1, [fp, #-12]
/mnt/c/user/privateWorkspace/School/OS/SP/KIV-RTOS/Odevzdani/src/userspace/semestral_task/src/evolution/chromosome.cpp:11
    return fit < obj.fit;
    8db4:	e51b3008 	ldr	r3, [fp, #-8]
    8db8:	ed937a05 	vldr	s14, [r3, #20]
    8dbc:	e51b300c 	ldr	r3, [fp, #-12]
    8dc0:	edd37a05 	vldr	s15, [r3, #20]
    8dc4:	eeb47ae7 	vcmpe.f32	s14, s15
    8dc8:	eef1fa10 	vmrs	APSR_nzcv, fpscr
    8dcc:	43a03001 	movmi	r3, #1
    8dd0:	53a03000 	movpl	r3, #0
    8dd4:	e6ef3073 	uxtb	r3, r3
/mnt/c/user/privateWorkspace/School/OS/SP/KIV-RTOS/Odevzdani/src/userspace/semestral_task/src/evolution/chromosome.cpp:12
}
    8dd8:	e1a00003 	mov	r0, r3
    8ddc:	e28bd000 	add	sp, fp, #0
    8de0:	e49db004 	pop	{fp}		; (ldr fp, [sp], #4)
    8de4:	e12fff1e 	bx	lr

00008de8 <_ZN10ChromosomegtERKS_>:
_ZN10ChromosomegtERKS_():
/mnt/c/user/privateWorkspace/School/OS/SP/KIV-RTOS/Odevzdani/src/userspace/semestral_task/src/evolution/chromosome.cpp:15

bool Chromosome::operator > (Chromosome const &obj)
{
    8de8:	e52db004 	push	{fp}		; (str fp, [sp, #-4]!)
    8dec:	e28db000 	add	fp, sp, #0
    8df0:	e24dd00c 	sub	sp, sp, #12
    8df4:	e50b0008 	str	r0, [fp, #-8]
    8df8:	e50b100c 	str	r1, [fp, #-12]
/mnt/c/user/privateWorkspace/School/OS/SP/KIV-RTOS/Odevzdani/src/userspace/semestral_task/src/evolution/chromosome.cpp:16
    return fit > obj.fit;
    8dfc:	e51b3008 	ldr	r3, [fp, #-8]
    8e00:	ed937a05 	vldr	s14, [r3, #20]
    8e04:	e51b300c 	ldr	r3, [fp, #-12]
    8e08:	edd37a05 	vldr	s15, [r3, #20]
    8e0c:	eeb47ae7 	vcmpe.f32	s14, s15
    8e10:	eef1fa10 	vmrs	APSR_nzcv, fpscr
    8e14:	c3a03001 	movgt	r3, #1
    8e18:	d3a03000 	movle	r3, #0
    8e1c:	e6ef3073 	uxtb	r3, r3
/mnt/c/user/privateWorkspace/School/OS/SP/KIV-RTOS/Odevzdani/src/userspace/semestral_task/src/evolution/chromosome.cpp:17
}
    8e20:	e1a00003 	mov	r0, r3
    8e24:	e28bd000 	add	sp, fp, #0
    8e28:	e49db004 	pop	{fp}		; (ldr fp, [sp], #4)
    8e2c:	e12fff1e 	bx	lr

00008e30 <_ZN10Chromosome2btEfi>:
_ZN10Chromosome2btEfi():
/mnt/c/user/privateWorkspace/School/OS/SP/KIV-RTOS/Odevzdani/src/userspace/semestral_task/src/evolution/chromosome.cpp:25
 * Calculate bt value. Equation is from the assignment. 
 * 
 * b(t) = D/E * dy(t)/dt + 1/E * y(t)
 */
float Chromosome::bt(float yt, int tdelta)
{
    8e30:	e52db004 	push	{fp}		; (str fp, [sp, #-4]!)
    8e34:	e28db000 	add	fp, sp, #0
    8e38:	e24dd01c 	sub	sp, sp, #28
    8e3c:	e50b0010 	str	r0, [fp, #-16]
    8e40:	ed0b0a05 	vstr	s0, [fp, #-20]	; 0xffffffec
    8e44:	e50b1018 	str	r1, [fp, #-24]	; 0xffffffe8
/mnt/c/user/privateWorkspace/School/OS/SP/KIV-RTOS/Odevzdani/src/userspace/semestral_task/src/evolution/chromosome.cpp:26
    float derivation = tdelta / 1.0 / (24.0 * 60.0); // Tady by asi mela byt delta t
    8e48:	e51b3018 	ldr	r3, [fp, #-24]	; 0xffffffe8
    8e4c:	ee073a90 	vmov	s15, r3
    8e50:	eeb86be7 	vcvt.f64.s32	d6, s15
    8e54:	ed9f5b15 	vldr	d5, [pc, #84]	; 8eb0 <_ZN10Chromosome2btEfi+0x80>
    8e58:	ee867b05 	vdiv.f64	d7, d6, d5
    8e5c:	eef77bc7 	vcvt.f32.f64	s15, d7
    8e60:	ed4b7a02 	vstr	s15, [fp, #-8]
/mnt/c/user/privateWorkspace/School/OS/SP/KIV-RTOS/Odevzdani/src/userspace/semestral_task/src/evolution/chromosome.cpp:27
    return (params[Params::D] / params[Params::E]) * derivation + (1 / params[Params::E]) * yt;
    8e64:	e51b3010 	ldr	r3, [fp, #-16]
    8e68:	edd36a03 	vldr	s13, [r3, #12]
    8e6c:	e51b3010 	ldr	r3, [fp, #-16]
    8e70:	edd37a04 	vldr	s15, [r3, #16]
    8e74:	ee867aa7 	vdiv.f32	s14, s13, s15
    8e78:	ed5b7a02 	vldr	s15, [fp, #-8]
    8e7c:	ee277a27 	vmul.f32	s14, s14, s15
    8e80:	e51b3010 	ldr	r3, [fp, #-16]
    8e84:	edd37a04 	vldr	s15, [r3, #16]
    8e88:	ed9f6a0a 	vldr	s12, [pc, #40]	; 8eb8 <_ZN10Chromosome2btEfi+0x88>
    8e8c:	eec66a27 	vdiv.f32	s13, s12, s15
    8e90:	ed5b7a05 	vldr	s15, [fp, #-20]	; 0xffffffec
    8e94:	ee667aa7 	vmul.f32	s15, s13, s15
    8e98:	ee777a27 	vadd.f32	s15, s14, s15
/mnt/c/user/privateWorkspace/School/OS/SP/KIV-RTOS/Odevzdani/src/userspace/semestral_task/src/evolution/chromosome.cpp:28
}
    8e9c:	eeb00a67 	vmov.f32	s0, s15
    8ea0:	e28bd000 	add	sp, fp, #0
    8ea4:	e49db004 	pop	{fp}		; (ldr fp, [sp], #4)
    8ea8:	e12fff1e 	bx	lr
    8eac:	e320f000 	nop	{0}
    8eb0:	00000000 	andeq	r0, r0, r0
    8eb4:	40968000 	addsmi	r8, r6, r0
    8eb8:	3f800000 	svccc	0x00800000

00008ebc <_ZN10Chromosome7predictEfi>:
_ZN10Chromosome7predictEfi():
/mnt/c/user/privateWorkspace/School/OS/SP/KIV-RTOS/Odevzdani/src/userspace/semestral_task/src/evolution/chromosome.cpp:36
 * Predict new value. Equation is from the assignment.
 * 
 * y(t + t_pred) = A * b(t) + B * b(t) * (b(t) - y(t)) + C
 */
float Chromosome::predict(float yt, int tdelta)
{
    8ebc:	e92d4800 	push	{fp, lr}
    8ec0:	e28db004 	add	fp, sp, #4
    8ec4:	e24dd018 	sub	sp, sp, #24
    8ec8:	e50b0010 	str	r0, [fp, #-16]
    8ecc:	ed0b0a05 	vstr	s0, [fp, #-20]	; 0xffffffec
    8ed0:	e50b1018 	str	r1, [fp, #-24]	; 0xffffffe8
/mnt/c/user/privateWorkspace/School/OS/SP/KIV-RTOS/Odevzdani/src/userspace/semestral_task/src/evolution/chromosome.cpp:37
    float btVal = bt(yt, tdelta);
    8ed4:	e51b1018 	ldr	r1, [fp, #-24]	; 0xffffffe8
    8ed8:	ed1b0a05 	vldr	s0, [fp, #-20]	; 0xffffffec
    8edc:	e51b0010 	ldr	r0, [fp, #-16]
    8ee0:	ebffffd2 	bl	8e30 <_ZN10Chromosome2btEfi>
    8ee4:	ed0b0a02 	vstr	s0, [fp, #-8]
/mnt/c/user/privateWorkspace/School/OS/SP/KIV-RTOS/Odevzdani/src/userspace/semestral_task/src/evolution/chromosome.cpp:38
    return params[Params::A] * btVal + params[Params::B] * btVal * (btVal - yt) + params[Params::C];
    8ee8:	e51b3010 	ldr	r3, [fp, #-16]
    8eec:	ed937a00 	vldr	s14, [r3]
    8ef0:	ed5b7a02 	vldr	s15, [fp, #-8]
    8ef4:	ee277a27 	vmul.f32	s14, s14, s15
    8ef8:	e51b3010 	ldr	r3, [fp, #-16]
    8efc:	edd36a01 	vldr	s13, [r3, #4]
    8f00:	ed5b7a02 	vldr	s15, [fp, #-8]
    8f04:	ee666aa7 	vmul.f32	s13, s13, s15
    8f08:	ed1b6a02 	vldr	s12, [fp, #-8]
    8f0c:	ed5b7a05 	vldr	s15, [fp, #-20]	; 0xffffffec
    8f10:	ee767a67 	vsub.f32	s15, s12, s15
    8f14:	ee667aa7 	vmul.f32	s15, s13, s15
    8f18:	ee377a27 	vadd.f32	s14, s14, s15
    8f1c:	e51b3010 	ldr	r3, [fp, #-16]
    8f20:	edd37a02 	vldr	s15, [r3, #8]
    8f24:	ee777a27 	vadd.f32	s15, s14, s15
/mnt/c/user/privateWorkspace/School/OS/SP/KIV-RTOS/Odevzdani/src/userspace/semestral_task/src/evolution/chromosome.cpp:39
}
    8f28:	eeb00a67 	vmov.f32	s0, s15
    8f2c:	e24bd004 	sub	sp, fp, #4
    8f30:	e8bd8800 	pop	{fp, pc}

00008f34 <_ZN10Chromosome7fitnessERffi>:
_ZN10Chromosome7fitnessERffi():
/mnt/c/user/privateWorkspace/School/OS/SP/KIV-RTOS/Odevzdani/src/userspace/semestral_task/src/evolution/chromosome.cpp:45

/**
 * Calculate fitness value of the current chromosome
 */
float Chromosome::fitness(float &measured_value, float yt, int tdelta)
{
    8f34:	e92d4800 	push	{fp, lr}
    8f38:	e28db004 	add	fp, sp, #4
    8f3c:	e24dd018 	sub	sp, sp, #24
    8f40:	e50b0010 	str	r0, [fp, #-16]
    8f44:	e50b1014 	str	r1, [fp, #-20]	; 0xffffffec
    8f48:	ed0b0a06 	vstr	s0, [fp, #-24]	; 0xffffffe8
    8f4c:	e50b201c 	str	r2, [fp, #-28]	; 0xffffffe4
/mnt/c/user/privateWorkspace/School/OS/SP/KIV-RTOS/Odevzdani/src/userspace/semestral_task/src/evolution/chromosome.cpp:46
    float yt_pred = predict(yt, tdelta);
    8f50:	e51b101c 	ldr	r1, [fp, #-28]	; 0xffffffe4
    8f54:	ed1b0a06 	vldr	s0, [fp, #-24]	; 0xffffffe8
    8f58:	e51b0010 	ldr	r0, [fp, #-16]
    8f5c:	ebffffd6 	bl	8ebc <_ZN10Chromosome7predictEfi>
    8f60:	ed0b0a02 	vstr	s0, [fp, #-8]
/mnt/c/user/privateWorkspace/School/OS/SP/KIV-RTOS/Odevzdani/src/userspace/semestral_task/src/evolution/chromosome.cpp:47
    fit = (yt_pred - measured_value) * (yt_pred - measured_value);
    8f64:	e51b3014 	ldr	r3, [fp, #-20]	; 0xffffffec
    8f68:	edd37a00 	vldr	s15, [r3]
    8f6c:	ed1b7a02 	vldr	s14, [fp, #-8]
    8f70:	ee377a67 	vsub.f32	s14, s14, s15
    8f74:	e51b3014 	ldr	r3, [fp, #-20]	; 0xffffffec
    8f78:	edd37a00 	vldr	s15, [r3]
    8f7c:	ed5b6a02 	vldr	s13, [fp, #-8]
    8f80:	ee767ae7 	vsub.f32	s15, s13, s15
    8f84:	ee677a27 	vmul.f32	s15, s14, s15
    8f88:	e51b3010 	ldr	r3, [fp, #-16]
    8f8c:	edc37a05 	vstr	s15, [r3, #20]
/mnt/c/user/privateWorkspace/School/OS/SP/KIV-RTOS/Odevzdani/src/userspace/semestral_task/src/evolution/chromosome.cpp:48
    return fit;
    8f90:	e51b3010 	ldr	r3, [fp, #-16]
    8f94:	e5933014 	ldr	r3, [r3, #20]
    8f98:	ee073a90 	vmov	s15, r3
/mnt/c/user/privateWorkspace/School/OS/SP/KIV-RTOS/Odevzdani/src/userspace/semestral_task/src/evolution/chromosome.cpp:49
}
    8f9c:	eeb00a67 	vmov.f32	s0, s15
    8fa0:	e24bd004 	sub	sp, fp, #4
    8fa4:	e8bd8800 	pop	{fp, pc}

00008fa8 <_ZN10Chromosome6mutateEv>:
_ZN10Chromosome6mutateEv():
/mnt/c/user/privateWorkspace/School/OS/SP/KIV-RTOS/Odevzdani/src/userspace/semestral_task/src/evolution/chromosome.cpp:55

/**
 * Generate random value to random index of the current chromosome
 */
void Chromosome::mutate()
{
    8fa8:	e92d4800 	push	{fp, lr}
    8fac:	e28db004 	add	fp, sp, #4
    8fb0:	e24dd010 	sub	sp, sp, #16
    8fb4:	e50b0010 	str	r0, [fp, #-16]
/mnt/c/user/privateWorkspace/School/OS/SP/KIV-RTOS/Odevzdani/src/userspace/semestral_task/src/evolution/chromosome.cpp:56
    int index = rnd.generate_int(0, PARAM_COUNT);
    8fb8:	e3a02005 	mov	r2, #5
    8fbc:	e3a01000 	mov	r1, #0
    8fc0:	e59f0038 	ldr	r0, [pc, #56]	; 9000 <_ZN10Chromosome6mutateEv+0x58>
    8fc4:	eb000737 	bl	aca8 <_ZN13Rnd_Generator12generate_intEii>
    8fc8:	e50b0008 	str	r0, [fp, #-8]
/mnt/c/user/privateWorkspace/School/OS/SP/KIV-RTOS/Odevzdani/src/userspace/semestral_task/src/evolution/chromosome.cpp:57
    params[index] = rnd.generate(RND_LOW_STOP, RND_HIGH_STOP); 
    8fcc:	e3a02005 	mov	r2, #5
    8fd0:	e3e01004 	mvn	r1, #4
    8fd4:	e59f0024 	ldr	r0, [pc, #36]	; 9000 <_ZN10Chromosome6mutateEv+0x58>
    8fd8:	eb000744 	bl	acf0 <_ZN13Rnd_Generator8generateEii>
    8fdc:	eef07a40 	vmov.f32	s15, s0
    8fe0:	e51b2010 	ldr	r2, [fp, #-16]
    8fe4:	e51b3008 	ldr	r3, [fp, #-8]
    8fe8:	e1a03103 	lsl	r3, r3, #2
    8fec:	e0823003 	add	r3, r2, r3
    8ff0:	edc37a00 	vstr	s15, [r3]
/mnt/c/user/privateWorkspace/School/OS/SP/KIV-RTOS/Odevzdani/src/userspace/semestral_task/src/evolution/chromosome.cpp:58
}
    8ff4:	e320f000 	nop	{0}
    8ff8:	e24bd004 	sub	sp, fp, #4
    8ffc:	e8bd8800 	pop	{fp, pc}
    9000:	0000b700 	andeq	fp, r0, r0, lsl #14

00009004 <_ZN10Chromosome9crossoverERS_>:
_ZN10Chromosome9crossoverERS_():
/mnt/c/user/privateWorkspace/School/OS/SP/KIV-RTOS/Odevzdani/src/userspace/semestral_task/src/evolution/chromosome.cpp:65
/**
 * Create new chromosome by randomly breeding two parent chromosomes together.
 * With rare probability, the new chromosome may mutate during breeding.
 */
Chromosome Chromosome::crossover(Chromosome &other)
{
    9004:	e92d4800 	push	{fp, lr}
    9008:	e28db004 	add	fp, sp, #4
    900c:	e24dd018 	sub	sp, sp, #24
    9010:	e50b0010 	str	r0, [fp, #-16]
    9014:	e50b1014 	str	r1, [fp, #-20]	; 0xffffffec
    9018:	e50b2018 	str	r2, [fp, #-24]	; 0xffffffe8
/mnt/c/user/privateWorkspace/School/OS/SP/KIV-RTOS/Odevzdani/src/userspace/semestral_task/src/evolution/chromosome.cpp:66
    Chromosome newChromosome;
    901c:	e51b3010 	ldr	r3, [fp, #-16]
    9020:	e1a02003 	mov	r2, r3
    9024:	e3a03000 	mov	r3, #0
    9028:	e5823000 	str	r3, [r2]
    902c:	e5823004 	str	r3, [r2, #4]
    9030:	e5823008 	str	r3, [r2, #8]
    9034:	e582300c 	str	r3, [r2, #12]
    9038:	e5823010 	str	r3, [r2, #16]
    903c:	e5823014 	str	r3, [r2, #20]
/mnt/c/user/privateWorkspace/School/OS/SP/KIV-RTOS/Odevzdani/src/userspace/semestral_task/src/evolution/chromosome.cpp:68

    for (int i = 0; i < PARAM_COUNT; i++)
    9040:	e3a03000 	mov	r3, #0
    9044:	e50b3008 	str	r3, [fp, #-8]
/mnt/c/user/privateWorkspace/School/OS/SP/KIV-RTOS/Odevzdani/src/userspace/semestral_task/src/evolution/chromosome.cpp:68 (discriminator 1)
    9048:	e51b3008 	ldr	r3, [fp, #-8]
    904c:	e3530004 	cmp	r3, #4
    9050:	ca000034 	bgt	9128 <_ZN10Chromosome9crossoverERS_+0x124>
/mnt/c/user/privateWorkspace/School/OS/SP/KIV-RTOS/Odevzdani/src/userspace/semestral_task/src/evolution/chromosome.cpp:71
    {
        // random probability 
        float p = rnd.generate(0, 1);
    9054:	e3a02001 	mov	r2, #1
    9058:	e3a01000 	mov	r1, #0
    905c:	e59f00e4 	ldr	r0, [pc, #228]	; 9148 <_ZN10Chromosome9crossoverERS_+0x144>
    9060:	eb000722 	bl	acf0 <_ZN13Rnd_Generator8generateEii>
    9064:	ed0b0a03 	vstr	s0, [fp, #-12]
/mnt/c/user/privateWorkspace/School/OS/SP/KIV-RTOS/Odevzdani/src/userspace/semestral_task/src/evolution/chromosome.cpp:75
  
        // if prob is less than 0.45, insert gene
        // from parent 1 
        if(p < 0.45) {
    9068:	ed5b7a03 	vldr	s15, [fp, #-12]
    906c:	eeb77ae7 	vcvt.f64.f32	d7, s15
    9070:	ed9f6b30 	vldr	d6, [pc, #192]	; 9138 <_ZN10Chromosome9crossoverERS_+0x134>
    9074:	eeb47bc6 	vcmpe.f64	d7, d6
    9078:	eef1fa10 	vmrs	APSR_nzcv, fpscr
    907c:	5a00000a 	bpl	90ac <_ZN10Chromosome9crossoverERS_+0xa8>
/mnt/c/user/privateWorkspace/School/OS/SP/KIV-RTOS/Odevzdani/src/userspace/semestral_task/src/evolution/chromosome.cpp:76
            newChromosome.params[i] = params[i];
    9080:	e51b2014 	ldr	r2, [fp, #-20]	; 0xffffffec
    9084:	e51b3008 	ldr	r3, [fp, #-8]
    9088:	e1a03103 	lsl	r3, r3, #2
    908c:	e0823003 	add	r3, r2, r3
    9090:	e5932000 	ldr	r2, [r3]
    9094:	e51b1010 	ldr	r1, [fp, #-16]
    9098:	e51b3008 	ldr	r3, [fp, #-8]
    909c:	e1a03103 	lsl	r3, r3, #2
    90a0:	e0813003 	add	r3, r1, r3
    90a4:	e5832000 	str	r2, [r3]
    90a8:	ea00001a 	b	9118 <_ZN10Chromosome9crossoverERS_+0x114>
/mnt/c/user/privateWorkspace/School/OS/SP/KIV-RTOS/Odevzdani/src/userspace/semestral_task/src/evolution/chromosome.cpp:81
        }
  
        // if prob is between 0.45 and 0.90, insert
        // gene from parent 2
        else if(p < 0.90) {
    90ac:	ed5b7a03 	vldr	s15, [fp, #-12]
    90b0:	eeb77ae7 	vcvt.f64.f32	d7, s15
    90b4:	ed9f6b21 	vldr	d6, [pc, #132]	; 9140 <_ZN10Chromosome9crossoverERS_+0x13c>
    90b8:	eeb47bc6 	vcmpe.f64	d7, d6
    90bc:	eef1fa10 	vmrs	APSR_nzcv, fpscr
    90c0:	5a00000a 	bpl	90f0 <_ZN10Chromosome9crossoverERS_+0xec>
/mnt/c/user/privateWorkspace/School/OS/SP/KIV-RTOS/Odevzdani/src/userspace/semestral_task/src/evolution/chromosome.cpp:82
            newChromosome.params[i] = other.params[i];
    90c4:	e51b2018 	ldr	r2, [fp, #-24]	; 0xffffffe8
    90c8:	e51b3008 	ldr	r3, [fp, #-8]
    90cc:	e1a03103 	lsl	r3, r3, #2
    90d0:	e0823003 	add	r3, r2, r3
    90d4:	e5932000 	ldr	r2, [r3]
    90d8:	e51b1010 	ldr	r1, [fp, #-16]
    90dc:	e51b3008 	ldr	r3, [fp, #-8]
    90e0:	e1a03103 	lsl	r3, r3, #2
    90e4:	e0813003 	add	r3, r1, r3
    90e8:	e5832000 	str	r2, [r3]
    90ec:	ea000009 	b	9118 <_ZN10Chromosome9crossoverERS_+0x114>
/mnt/c/user/privateWorkspace/School/OS/SP/KIV-RTOS/Odevzdani/src/userspace/semestral_task/src/evolution/chromosome.cpp:88
        }
  
        // otherwise insert random gene(mutate), 
        // for maintaining diversity
        else {
            newChromosome.params[i] = rnd.generate(RND_LOW_STOP, RND_HIGH_STOP);
    90f0:	e3a02005 	mov	r2, #5
    90f4:	e3e01004 	mvn	r1, #4
    90f8:	e59f0048 	ldr	r0, [pc, #72]	; 9148 <_ZN10Chromosome9crossoverERS_+0x144>
    90fc:	eb0006fb 	bl	acf0 <_ZN13Rnd_Generator8generateEii>
    9100:	eef07a40 	vmov.f32	s15, s0
    9104:	e51b2010 	ldr	r2, [fp, #-16]
    9108:	e51b3008 	ldr	r3, [fp, #-8]
    910c:	e1a03103 	lsl	r3, r3, #2
    9110:	e0823003 	add	r3, r2, r3
    9114:	edc37a00 	vstr	s15, [r3]
/mnt/c/user/privateWorkspace/School/OS/SP/KIV-RTOS/Odevzdani/src/userspace/semestral_task/src/evolution/chromosome.cpp:68 (discriminator 2)
    for (int i = 0; i < PARAM_COUNT; i++)
    9118:	e51b3008 	ldr	r3, [fp, #-8]
    911c:	e2833001 	add	r3, r3, #1
    9120:	e50b3008 	str	r3, [fp, #-8]
    9124:	eaffffc7 	b	9048 <_ZN10Chromosome9crossoverERS_+0x44>
/mnt/c/user/privateWorkspace/School/OS/SP/KIV-RTOS/Odevzdani/src/userspace/semestral_task/src/evolution/chromosome.cpp:92
        }
    }

    return newChromosome;
    9128:	e320f000 	nop	{0}
/mnt/c/user/privateWorkspace/School/OS/SP/KIV-RTOS/Odevzdani/src/userspace/semestral_task/src/evolution/chromosome.cpp:93
}
    912c:	e51b0010 	ldr	r0, [fp, #-16]
    9130:	e24bd004 	sub	sp, fp, #4
    9134:	e8bd8800 	pop	{fp, pc}
    9138:	cccccccd 	stclgt	12, cr12, [ip], {205}	; 0xcd
    913c:	3fdccccc 	svccc	0x00dccccc
    9140:	cccccccd 	stclgt	12, cr12, [ip], {205}	; 0xcd
    9144:	3feccccc 	svccc	0x00eccccc
    9148:	0000b700 	andeq	fp, r0, r0, lsl #14

0000914c <_ZN10Chromosome13init_randomlyEv>:
_ZN10Chromosome13init_randomlyEv():
/mnt/c/user/privateWorkspace/School/OS/SP/KIV-RTOS/Odevzdani/src/userspace/semestral_task/src/evolution/chromosome.cpp:99

/**
 * Init current chromosome with new values.
 */
void Chromosome::init_randomly()
{
    914c:	e92d4800 	push	{fp, lr}
    9150:	e28db004 	add	fp, sp, #4
    9154:	e24dd010 	sub	sp, sp, #16
    9158:	e50b0010 	str	r0, [fp, #-16]
/mnt/c/user/privateWorkspace/School/OS/SP/KIV-RTOS/Odevzdani/src/userspace/semestral_task/src/evolution/chromosome.cpp:100
    for (int i = 0; i < PARAM_COUNT; i++) {
    915c:	e3a03000 	mov	r3, #0
    9160:	e50b3008 	str	r3, [fp, #-8]
/mnt/c/user/privateWorkspace/School/OS/SP/KIV-RTOS/Odevzdani/src/userspace/semestral_task/src/evolution/chromosome.cpp:100 (discriminator 3)
    9164:	e51b3008 	ldr	r3, [fp, #-8]
    9168:	e3530004 	cmp	r3, #4
    916c:	ca00000d 	bgt	91a8 <_ZN10Chromosome13init_randomlyEv+0x5c>
/mnt/c/user/privateWorkspace/School/OS/SP/KIV-RTOS/Odevzdani/src/userspace/semestral_task/src/evolution/chromosome.cpp:101 (discriminator 2)
        params[i] = rnd.generate(RND_LOW_STOP, RND_HIGH_STOP); 
    9170:	e3a02005 	mov	r2, #5
    9174:	e3e01004 	mvn	r1, #4
    9178:	e59f0034 	ldr	r0, [pc, #52]	; 91b4 <_ZN10Chromosome13init_randomlyEv+0x68>
    917c:	eb0006db 	bl	acf0 <_ZN13Rnd_Generator8generateEii>
    9180:	eef07a40 	vmov.f32	s15, s0
    9184:	e51b2010 	ldr	r2, [fp, #-16]
    9188:	e51b3008 	ldr	r3, [fp, #-8]
    918c:	e1a03103 	lsl	r3, r3, #2
    9190:	e0823003 	add	r3, r2, r3
    9194:	edc37a00 	vstr	s15, [r3]
/mnt/c/user/privateWorkspace/School/OS/SP/KIV-RTOS/Odevzdani/src/userspace/semestral_task/src/evolution/chromosome.cpp:100 (discriminator 2)
    for (int i = 0; i < PARAM_COUNT; i++) {
    9198:	e51b3008 	ldr	r3, [fp, #-8]
    919c:	e2833001 	add	r3, r3, #1
    91a0:	e50b3008 	str	r3, [fp, #-8]
    91a4:	eaffffee 	b	9164 <_ZN10Chromosome13init_randomlyEv+0x18>
/mnt/c/user/privateWorkspace/School/OS/SP/KIV-RTOS/Odevzdani/src/userspace/semestral_task/src/evolution/chromosome.cpp:103
    }
}
    91a8:	e320f000 	nop	{0}
    91ac:	e24bd004 	sub	sp, fp, #4
    91b0:	e8bd8800 	pop	{fp, pc}
    91b4:	0000b700 	andeq	fp, r0, r0, lsl #14

000091b8 <_ZN10Chromosome11get_fitnessEv>:
_ZN10Chromosome11get_fitnessEv():
/mnt/c/user/privateWorkspace/School/OS/SP/KIV-RTOS/Odevzdani/src/userspace/semestral_task/src/evolution/chromosome.cpp:109

/**
 * Returns precalculated fitness of the current Chromosome
 */
float Chromosome::get_fitness()
{
    91b8:	e52db004 	push	{fp}		; (str fp, [sp, #-4]!)
    91bc:	e28db000 	add	fp, sp, #0
    91c0:	e24dd00c 	sub	sp, sp, #12
    91c4:	e50b0008 	str	r0, [fp, #-8]
/mnt/c/user/privateWorkspace/School/OS/SP/KIV-RTOS/Odevzdani/src/userspace/semestral_task/src/evolution/chromosome.cpp:110
    return fit;
    91c8:	e51b3008 	ldr	r3, [fp, #-8]
    91cc:	e5933014 	ldr	r3, [r3, #20]
    91d0:	ee073a90 	vmov	s15, r3
/mnt/c/user/privateWorkspace/School/OS/SP/KIV-RTOS/Odevzdani/src/userspace/semestral_task/src/evolution/chromosome.cpp:111
}
    91d4:	eeb00a67 	vmov.f32	s0, s15
    91d8:	e28bd000 	add	sp, fp, #0
    91dc:	e49db004 	pop	{fp}		; (ldr fp, [sp], #4)
    91e0:	e12fff1e 	bx	lr

000091e4 <_ZN10Chromosome9get_modelEv>:
_ZN10Chromosome9get_modelEv():
/mnt/c/user/privateWorkspace/School/OS/SP/KIV-RTOS/Odevzdani/src/userspace/semestral_task/src/evolution/chromosome.cpp:117

/**
 * Returns values of the model.
 */
Model Chromosome::get_model() 
{
    91e4:	e52db004 	push	{fp}		; (str fp, [sp, #-4]!)
    91e8:	e28db000 	add	fp, sp, #0
    91ec:	e24dd00c 	sub	sp, sp, #12
    91f0:	e50b0008 	str	r0, [fp, #-8]
    91f4:	e50b100c 	str	r1, [fp, #-12]
/mnt/c/user/privateWorkspace/School/OS/SP/KIV-RTOS/Odevzdani/src/userspace/semestral_task/src/evolution/chromosome.cpp:119
    Model model;
    model.A = params[Params::A];
    91f8:	e51b300c 	ldr	r3, [fp, #-12]
    91fc:	e5932000 	ldr	r2, [r3]
    9200:	e51b3008 	ldr	r3, [fp, #-8]
    9204:	e5832000 	str	r2, [r3]
/mnt/c/user/privateWorkspace/School/OS/SP/KIV-RTOS/Odevzdani/src/userspace/semestral_task/src/evolution/chromosome.cpp:120
    model.B = params[Params::B];
    9208:	e51b300c 	ldr	r3, [fp, #-12]
    920c:	e5932004 	ldr	r2, [r3, #4]
    9210:	e51b3008 	ldr	r3, [fp, #-8]
    9214:	e5832004 	str	r2, [r3, #4]
/mnt/c/user/privateWorkspace/School/OS/SP/KIV-RTOS/Odevzdani/src/userspace/semestral_task/src/evolution/chromosome.cpp:121
    model.C = params[Params::C];
    9218:	e51b300c 	ldr	r3, [fp, #-12]
    921c:	e5932008 	ldr	r2, [r3, #8]
    9220:	e51b3008 	ldr	r3, [fp, #-8]
    9224:	e5832008 	str	r2, [r3, #8]
/mnt/c/user/privateWorkspace/School/OS/SP/KIV-RTOS/Odevzdani/src/userspace/semestral_task/src/evolution/chromosome.cpp:122
    model.D = params[Params::D];
    9228:	e51b300c 	ldr	r3, [fp, #-12]
    922c:	e593200c 	ldr	r2, [r3, #12]
    9230:	e51b3008 	ldr	r3, [fp, #-8]
    9234:	e583200c 	str	r2, [r3, #12]
/mnt/c/user/privateWorkspace/School/OS/SP/KIV-RTOS/Odevzdani/src/userspace/semestral_task/src/evolution/chromosome.cpp:123
    model.E = params[Params::E];
    9238:	e51b300c 	ldr	r3, [fp, #-12]
    923c:	e5932010 	ldr	r2, [r3, #16]
    9240:	e51b3008 	ldr	r3, [fp, #-8]
    9244:	e5832010 	str	r2, [r3, #16]
/mnt/c/user/privateWorkspace/School/OS/SP/KIV-RTOS/Odevzdani/src/userspace/semestral_task/src/evolution/chromosome.cpp:125

    return model;
    9248:	e320f000 	nop	{0}
/mnt/c/user/privateWorkspace/School/OS/SP/KIV-RTOS/Odevzdani/src/userspace/semestral_task/src/evolution/chromosome.cpp:126
    924c:	e51b0008 	ldr	r0, [fp, #-8]
    9250:	e28bd000 	add	sp, fp, #0
    9254:	e49db004 	pop	{fp}		; (ldr fp, [sp], #4)
    9258:	e12fff1e 	bx	lr

0000925c <_ZN10Generation12evaluate_genEfjfi>:
_ZN10Generation12evaluate_genEfjfi():
/mnt/c/user/privateWorkspace/School/OS/SP/KIV-RTOS/Odevzdani/src/userspace/semestral_task/src/evolution/generation.cpp:8
#include <stdfile.h>
#include <stdstring.h>
#include <quicksort.h>

void Generation::evaluate_gen(float measured_value, uint32_t file, float yt, int tdelta)
{
    925c:	e92d4800 	push	{fp, lr}
    9260:	e28db004 	add	fp, sp, #4
    9264:	e24dd020 	sub	sp, sp, #32
    9268:	e50b0010 	str	r0, [fp, #-16]
    926c:	ed0b0a05 	vstr	s0, [fp, #-20]	; 0xffffffec
    9270:	e50b1018 	str	r1, [fp, #-24]	; 0xffffffe8
    9274:	ed4b0a07 	vstr	s1, [fp, #-28]	; 0xffffffe4
    9278:	e50b2020 	str	r2, [fp, #-32]	; 0xffffffe0
/mnt/c/user/privateWorkspace/School/OS/SP/KIV-RTOS/Odevzdani/src/userspace/semestral_task/src/evolution/generation.cpp:9
    for (int i = 0; i < GEN_SIZE; i++)
    927c:	e3a03000 	mov	r3, #0
    9280:	e50b3008 	str	r3, [fp, #-8]
/mnt/c/user/privateWorkspace/School/OS/SP/KIV-RTOS/Odevzdani/src/userspace/semestral_task/src/evolution/generation.cpp:9 (discriminator 3)
    9284:	e51b3008 	ldr	r3, [fp, #-8]
    9288:	e3530063 	cmp	r3, #99	; 0x63
    928c:	ca00000f 	bgt	92d0 <_ZN10Generation12evaluate_genEfjfi+0x74>
/mnt/c/user/privateWorkspace/School/OS/SP/KIV-RTOS/Odevzdani/src/userspace/semestral_task/src/evolution/generation.cpp:11 (discriminator 2)
    {
        gen[i].fitness(measured_value, yt, tdelta);
    9290:	e51b2008 	ldr	r2, [fp, #-8]
    9294:	e1a03002 	mov	r3, r2
    9298:	e1a03083 	lsl	r3, r3, #1
    929c:	e0833002 	add	r3, r3, r2
    92a0:	e1a03183 	lsl	r3, r3, #3
    92a4:	e51b2010 	ldr	r2, [fp, #-16]
    92a8:	e0823003 	add	r3, r2, r3
    92ac:	e24b1014 	sub	r1, fp, #20
    92b0:	e51b2020 	ldr	r2, [fp, #-32]	; 0xffffffe0
    92b4:	ed1b0a07 	vldr	s0, [fp, #-28]	; 0xffffffe4
    92b8:	e1a00003 	mov	r0, r3
    92bc:	ebffff1c 	bl	8f34 <_ZN10Chromosome7fitnessERffi>
/mnt/c/user/privateWorkspace/School/OS/SP/KIV-RTOS/Odevzdani/src/userspace/semestral_task/src/evolution/generation.cpp:9 (discriminator 2)
    for (int i = 0; i < GEN_SIZE; i++)
    92c0:	e51b3008 	ldr	r3, [fp, #-8]
    92c4:	e2833001 	add	r3, r3, #1
    92c8:	e50b3008 	str	r3, [fp, #-8]
    92cc:	eaffffec 	b	9284 <_ZN10Generation12evaluate_genEfjfi+0x28>
/mnt/c/user/privateWorkspace/School/OS/SP/KIV-RTOS/Odevzdani/src/userspace/semestral_task/src/evolution/generation.cpp:14
    }
    
    quicksort(gen, GEN_SIZE);
    92d0:	e51b3010 	ldr	r3, [fp, #-16]
    92d4:	e3a02000 	mov	r2, #0
    92d8:	e3a01064 	mov	r1, #100	; 0x64
    92dc:	e1a00003 	mov	r0, r3
    92e0:	eb0000d1 	bl	962c <_Z9quicksortI10ChromosomeEvPT_ii>
/mnt/c/user/privateWorkspace/School/OS/SP/KIV-RTOS/Odevzdani/src/userspace/semestral_task/src/evolution/generation.cpp:15
}
    92e4:	e320f000 	nop	{0}
    92e8:	e24bd004 	sub	sp, fp, #4
    92ec:	e8bd8800 	pop	{fp, pc}

000092f0 <_ZN10Generation11init_randomEv>:
_ZN10Generation11init_randomEv():
/mnt/c/user/privateWorkspace/School/OS/SP/KIV-RTOS/Odevzdani/src/userspace/semestral_task/src/evolution/generation.cpp:18

void Generation::init_random()
{
    92f0:	e92d4800 	push	{fp, lr}
    92f4:	e28db004 	add	fp, sp, #4
    92f8:	e24dd010 	sub	sp, sp, #16
    92fc:	e50b0010 	str	r0, [fp, #-16]
/mnt/c/user/privateWorkspace/School/OS/SP/KIV-RTOS/Odevzdani/src/userspace/semestral_task/src/evolution/generation.cpp:19
    for (int i = 0; i < GEN_SIZE; i++)
    9300:	e3a03000 	mov	r3, #0
    9304:	e50b3008 	str	r3, [fp, #-8]
/mnt/c/user/privateWorkspace/School/OS/SP/KIV-RTOS/Odevzdani/src/userspace/semestral_task/src/evolution/generation.cpp:19 (discriminator 3)
    9308:	e51b3008 	ldr	r3, [fp, #-8]
    930c:	e3530063 	cmp	r3, #99	; 0x63
    9310:	ca00000c 	bgt	9348 <_ZN10Generation11init_randomEv+0x58>
/mnt/c/user/privateWorkspace/School/OS/SP/KIV-RTOS/Odevzdani/src/userspace/semestral_task/src/evolution/generation.cpp:20 (discriminator 2)
        gen[i].init_randomly();
    9314:	e51b2008 	ldr	r2, [fp, #-8]
    9318:	e1a03002 	mov	r3, r2
    931c:	e1a03083 	lsl	r3, r3, #1
    9320:	e0833002 	add	r3, r3, r2
    9324:	e1a03183 	lsl	r3, r3, #3
    9328:	e51b2010 	ldr	r2, [fp, #-16]
    932c:	e0823003 	add	r3, r2, r3
    9330:	e1a00003 	mov	r0, r3
    9334:	ebffff84 	bl	914c <_ZN10Chromosome13init_randomlyEv>
/mnt/c/user/privateWorkspace/School/OS/SP/KIV-RTOS/Odevzdani/src/userspace/semestral_task/src/evolution/generation.cpp:19 (discriminator 2)
    for (int i = 0; i < GEN_SIZE; i++)
    9338:	e51b3008 	ldr	r3, [fp, #-8]
    933c:	e2833001 	add	r3, r3, #1
    9340:	e50b3008 	str	r3, [fp, #-8]
    9344:	eaffffef 	b	9308 <_ZN10Generation11init_randomEv+0x18>
/mnt/c/user/privateWorkspace/School/OS/SP/KIV-RTOS/Odevzdani/src/userspace/semestral_task/src/evolution/generation.cpp:21
}
    9348:	e320f000 	nop	{0}
    934c:	e24bd004 	sub	sp, fp, #4
    9350:	e8bd8800 	pop	{fp, pc}

00009354 <_ZN10Generation7predictEfi>:
_ZN10Generation7predictEfi():
/mnt/c/user/privateWorkspace/School/OS/SP/KIV-RTOS/Odevzdani/src/userspace/semestral_task/src/evolution/generation.cpp:25


float Generation::predict(float currentYt, int tdelta)
{
    9354:	e92d4800 	push	{fp, lr}
    9358:	e28db004 	add	fp, sp, #4
    935c:	e24dd010 	sub	sp, sp, #16
    9360:	e50b0008 	str	r0, [fp, #-8]
    9364:	ed0b0a03 	vstr	s0, [fp, #-12]
    9368:	e50b1010 	str	r1, [fp, #-16]
/mnt/c/user/privateWorkspace/School/OS/SP/KIV-RTOS/Odevzdani/src/userspace/semestral_task/src/evolution/generation.cpp:26
    quicksort(gen, GEN_SIZE);
    936c:	e51b3008 	ldr	r3, [fp, #-8]
    9370:	e3a02000 	mov	r2, #0
    9374:	e3a01064 	mov	r1, #100	; 0x64
    9378:	e1a00003 	mov	r0, r3
    937c:	eb0000aa 	bl	962c <_Z9quicksortI10ChromosomeEvPT_ii>
/mnt/c/user/privateWorkspace/School/OS/SP/KIV-RTOS/Odevzdani/src/userspace/semestral_task/src/evolution/generation.cpp:28
    
    return gen[0].predict(currentYt, tdelta);
    9380:	e51b3008 	ldr	r3, [fp, #-8]
    9384:	e51b1010 	ldr	r1, [fp, #-16]
    9388:	ed1b0a03 	vldr	s0, [fp, #-12]
    938c:	e1a00003 	mov	r0, r3
    9390:	ebfffec9 	bl	8ebc <_ZN10Chromosome7predictEfi>
    9394:	eef07a40 	vmov.f32	s15, s0
/mnt/c/user/privateWorkspace/School/OS/SP/KIV-RTOS/Odevzdani/src/userspace/semestral_task/src/evolution/generation.cpp:29
}
    9398:	eeb00a67 	vmov.f32	s0, s15
    939c:	e24bd004 	sub	sp, fp, #4
    93a0:	e8bd8800 	pop	{fp, pc}

000093a4 <_ZN10Generation10crossbreedEPS_i>:
_ZN10Generation10crossbreedEPS_i():
/mnt/c/user/privateWorkspace/School/OS/SP/KIV-RTOS/Odevzdani/src/userspace/semestral_task/src/evolution/generation.cpp:31

void Generation::crossbreed(Generation *g, int index) {
    93a4:	e92d4810 	push	{r4, fp, lr}
    93a8:	e28db008 	add	fp, sp, #8
    93ac:	e24dd064 	sub	sp, sp, #100	; 0x64
    93b0:	e50b0048 	str	r0, [fp, #-72]	; 0xffffffb8
    93b4:	e50b104c 	str	r1, [fp, #-76]	; 0xffffffb4
    93b8:	e50b2050 	str	r2, [fp, #-80]	; 0xffffffb0
/mnt/c/user/privateWorkspace/School/OS/SP/KIV-RTOS/Odevzdani/src/userspace/semestral_task/src/evolution/generation.cpp:32
    int firstParentIndex = rnd.generate_int(0, GEN_SIZE);
    93bc:	e3a02064 	mov	r2, #100	; 0x64
    93c0:	e3a01000 	mov	r1, #0
    93c4:	e59f00d4 	ldr	r0, [pc, #212]	; 94a0 <_ZN10Generation10crossbreedEPS_i+0xfc>
    93c8:	eb000636 	bl	aca8 <_ZN13Rnd_Generator12generate_intEii>
    93cc:	e50b0010 	str	r0, [fp, #-16]
/mnt/c/user/privateWorkspace/School/OS/SP/KIV-RTOS/Odevzdani/src/userspace/semestral_task/src/evolution/generation.cpp:33
    Chromosome firstParent = gen[firstParentIndex];
    93d0:	e51b1048 	ldr	r1, [fp, #-72]	; 0xffffffb8
    93d4:	e51b2010 	ldr	r2, [fp, #-16]
    93d8:	e1a03002 	mov	r3, r2
    93dc:	e1a03083 	lsl	r3, r3, #1
    93e0:	e0833002 	add	r3, r3, r2
    93e4:	e1a03183 	lsl	r3, r3, #3
    93e8:	e0813003 	add	r3, r1, r3
    93ec:	e24bc02c 	sub	ip, fp, #44	; 0x2c
    93f0:	e1a0e003 	mov	lr, r3
    93f4:	e8be000f 	ldm	lr!, {r0, r1, r2, r3}
    93f8:	e8ac000f 	stmia	ip!, {r0, r1, r2, r3}
    93fc:	e89e0003 	ldm	lr, {r0, r1}
    9400:	e88c0003 	stm	ip, {r0, r1}
/mnt/c/user/privateWorkspace/School/OS/SP/KIV-RTOS/Odevzdani/src/userspace/semestral_task/src/evolution/generation.cpp:35

    int secondParentIndex = rnd.generate_int(0, GEN_SIZE);
    9404:	e3a02064 	mov	r2, #100	; 0x64
    9408:	e3a01000 	mov	r1, #0
    940c:	e59f008c 	ldr	r0, [pc, #140]	; 94a0 <_ZN10Generation10crossbreedEPS_i+0xfc>
    9410:	eb000624 	bl	aca8 <_ZN13Rnd_Generator12generate_intEii>
    9414:	e50b0014 	str	r0, [fp, #-20]	; 0xffffffec
/mnt/c/user/privateWorkspace/School/OS/SP/KIV-RTOS/Odevzdani/src/userspace/semestral_task/src/evolution/generation.cpp:36
    Chromosome secondParent = gen[secondParentIndex];
    9418:	e51b1048 	ldr	r1, [fp, #-72]	; 0xffffffb8
    941c:	e51b2014 	ldr	r2, [fp, #-20]	; 0xffffffec
    9420:	e1a03002 	mov	r3, r2
    9424:	e1a03083 	lsl	r3, r3, #1
    9428:	e0833002 	add	r3, r3, r2
    942c:	e1a03183 	lsl	r3, r3, #3
    9430:	e0813003 	add	r3, r1, r3
    9434:	e24bc044 	sub	ip, fp, #68	; 0x44
    9438:	e1a0e003 	mov	lr, r3
    943c:	e8be000f 	ldm	lr!, {r0, r1, r2, r3}
    9440:	e8ac000f 	stmia	ip!, {r0, r1, r2, r3}
    9444:	e89e0003 	ldm	lr, {r0, r1}
    9448:	e88c0003 	stm	ip, {r0, r1}
/mnt/c/user/privateWorkspace/School/OS/SP/KIV-RTOS/Odevzdani/src/userspace/semestral_task/src/evolution/generation.cpp:38
    
    g->gen[index] = firstParent.crossover(secondParent);
    944c:	e51b104c 	ldr	r1, [fp, #-76]	; 0xffffffb4
    9450:	e51b2050 	ldr	r2, [fp, #-80]	; 0xffffffb0
    9454:	e1a03002 	mov	r3, r2
    9458:	e1a03083 	lsl	r3, r3, #1
    945c:	e0833002 	add	r3, r3, r2
    9460:	e1a03183 	lsl	r3, r3, #3
    9464:	e0814003 	add	r4, r1, r3
    9468:	e24b306c 	sub	r3, fp, #108	; 0x6c
    946c:	e24b2044 	sub	r2, fp, #68	; 0x44
    9470:	e24b102c 	sub	r1, fp, #44	; 0x2c
    9474:	e1a00003 	mov	r0, r3
    9478:	ebfffee1 	bl	9004 <_ZN10Chromosome9crossoverERS_>
    947c:	e1a0e004 	mov	lr, r4
    9480:	e24bc06c 	sub	ip, fp, #108	; 0x6c
    9484:	e8bc000f 	ldm	ip!, {r0, r1, r2, r3}
    9488:	e8ae000f 	stmia	lr!, {r0, r1, r2, r3}
    948c:	e89c0003 	ldm	ip, {r0, r1}
    9490:	e88e0003 	stm	lr, {r0, r1}
/mnt/c/user/privateWorkspace/School/OS/SP/KIV-RTOS/Odevzdani/src/userspace/semestral_task/src/evolution/generation.cpp:39
}
    9494:	e320f000 	nop	{0}
    9498:	e24bd008 	sub	sp, fp, #8
    949c:	e8bd8810 	pop	{r4, fp, pc}
    94a0:	0000b700 	andeq	fp, r0, r0, lsl #14

000094a4 <_ZN10Generation8next_genEPS_>:
_ZN10Generation8next_genEPS_():
/mnt/c/user/privateWorkspace/School/OS/SP/KIV-RTOS/Odevzdani/src/userspace/semestral_task/src/evolution/generation.cpp:42

void Generation::next_gen(Generation *g)
{
    94a4:	e92d4800 	push	{fp, lr}
    94a8:	e28db004 	add	fp, sp, #4
    94ac:	e24dd018 	sub	sp, sp, #24
    94b0:	e50b0018 	str	r0, [fp, #-24]	; 0xffffffe8
    94b4:	e50b101c 	str	r1, [fp, #-28]	; 0xffffffe4
/mnt/c/user/privateWorkspace/School/OS/SP/KIV-RTOS/Odevzdani/src/userspace/semestral_task/src/evolution/generation.cpp:43
    int i = 0;
    94b8:	e3a03000 	mov	r3, #0
    94bc:	e50b3008 	str	r3, [fp, #-8]
/mnt/c/user/privateWorkspace/School/OS/SP/KIV-RTOS/Odevzdani/src/userspace/semestral_task/src/evolution/generation.cpp:45 (discriminator 2)
    // --- use top 10% without change
    for (; i < (GEN_SIZE / 100) * 10; i++)
    94c0:	e51b3008 	ldr	r3, [fp, #-8]
    94c4:	e3530009 	cmp	r3, #9
    94c8:	ca000017 	bgt	952c <_ZN10Generation8next_genEPS_+0x88>
/mnt/c/user/privateWorkspace/School/OS/SP/KIV-RTOS/Odevzdani/src/userspace/semestral_task/src/evolution/generation.cpp:46 (discriminator 1)
        g->gen[i] = gen[i];
    94cc:	e51b101c 	ldr	r1, [fp, #-28]	; 0xffffffe4
    94d0:	e51b2008 	ldr	r2, [fp, #-8]
    94d4:	e1a03002 	mov	r3, r2
    94d8:	e1a03083 	lsl	r3, r3, #1
    94dc:	e0833002 	add	r3, r3, r2
    94e0:	e1a03183 	lsl	r3, r3, #3
    94e4:	e0810003 	add	r0, r1, r3
    94e8:	e51b1018 	ldr	r1, [fp, #-24]	; 0xffffffe8
    94ec:	e51b2008 	ldr	r2, [fp, #-8]
    94f0:	e1a03002 	mov	r3, r2
    94f4:	e1a03083 	lsl	r3, r3, #1
    94f8:	e0833002 	add	r3, r3, r2
    94fc:	e1a03183 	lsl	r3, r3, #3
    9500:	e0813003 	add	r3, r1, r3
    9504:	e1a0c000 	mov	ip, r0
    9508:	e1a0e003 	mov	lr, r3
    950c:	e8be000f 	ldm	lr!, {r0, r1, r2, r3}
    9510:	e8ac000f 	stmia	ip!, {r0, r1, r2, r3}
    9514:	e89e0003 	ldm	lr, {r0, r1}
    9518:	e88c0003 	stm	ip, {r0, r1}
/mnt/c/user/privateWorkspace/School/OS/SP/KIV-RTOS/Odevzdani/src/userspace/semestral_task/src/evolution/generation.cpp:45 (discriminator 1)
    for (; i < (GEN_SIZE / 100) * 10; i++)
    951c:	e51b3008 	ldr	r3, [fp, #-8]
    9520:	e2833001 	add	r3, r3, #1
    9524:	e50b3008 	str	r3, [fp, #-8]
    9528:	eaffffe4 	b	94c0 <_ZN10Generation8next_genEPS_+0x1c>
/mnt/c/user/privateWorkspace/School/OS/SP/KIV-RTOS/Odevzdani/src/userspace/semestral_task/src/evolution/generation.cpp:49 (discriminator 2)

    // Generate 80% of population by crossbreeding
    for (; i < (GEN_SIZE / 100) * 90; i++)
    952c:	e51b3008 	ldr	r3, [fp, #-8]
    9530:	e3530059 	cmp	r3, #89	; 0x59
    9534:	ca000007 	bgt	9558 <_ZN10Generation8next_genEPS_+0xb4>
/mnt/c/user/privateWorkspace/School/OS/SP/KIV-RTOS/Odevzdani/src/userspace/semestral_task/src/evolution/generation.cpp:51 (discriminator 1)
    {
        crossbreed(g, i);
    9538:	e51b2008 	ldr	r2, [fp, #-8]
    953c:	e51b101c 	ldr	r1, [fp, #-28]	; 0xffffffe4
    9540:	e51b0018 	ldr	r0, [fp, #-24]	; 0xffffffe8
    9544:	ebffff96 	bl	93a4 <_ZN10Generation10crossbreedEPS_i>
/mnt/c/user/privateWorkspace/School/OS/SP/KIV-RTOS/Odevzdani/src/userspace/semestral_task/src/evolution/generation.cpp:49 (discriminator 1)
    for (; i < (GEN_SIZE / 100) * 90; i++)
    9548:	e51b3008 	ldr	r3, [fp, #-8]
    954c:	e2833001 	add	r3, r3, #1
    9550:	e50b3008 	str	r3, [fp, #-8]
    9554:	eafffff4 	b	952c <_ZN10Generation8next_genEPS_+0x88>
/mnt/c/user/privateWorkspace/School/OS/SP/KIV-RTOS/Odevzdani/src/userspace/semestral_task/src/evolution/generation.cpp:55
    }

    // --- put copy of top 10% to the back
    int j = 0;
    9558:	e3a03000 	mov	r3, #0
    955c:	e50b300c 	str	r3, [fp, #-12]
/mnt/c/user/privateWorkspace/School/OS/SP/KIV-RTOS/Odevzdani/src/userspace/semestral_task/src/evolution/generation.cpp:56 (discriminator 2)
    for (; i < GEN_SIZE; i++) {
    9560:	e51b3008 	ldr	r3, [fp, #-8]
    9564:	e3530063 	cmp	r3, #99	; 0x63
    9568:	ca00001a 	bgt	95d8 <_ZN10Generation8next_genEPS_+0x134>
/mnt/c/user/privateWorkspace/School/OS/SP/KIV-RTOS/Odevzdani/src/userspace/semestral_task/src/evolution/generation.cpp:57 (discriminator 1)
        g->gen[i] = gen[j];
    956c:	e51b101c 	ldr	r1, [fp, #-28]	; 0xffffffe4
    9570:	e51b2008 	ldr	r2, [fp, #-8]
    9574:	e1a03002 	mov	r3, r2
    9578:	e1a03083 	lsl	r3, r3, #1
    957c:	e0833002 	add	r3, r3, r2
    9580:	e1a03183 	lsl	r3, r3, #3
    9584:	e0810003 	add	r0, r1, r3
    9588:	e51b1018 	ldr	r1, [fp, #-24]	; 0xffffffe8
    958c:	e51b200c 	ldr	r2, [fp, #-12]
    9590:	e1a03002 	mov	r3, r2
    9594:	e1a03083 	lsl	r3, r3, #1
    9598:	e0833002 	add	r3, r3, r2
    959c:	e1a03183 	lsl	r3, r3, #3
    95a0:	e0813003 	add	r3, r1, r3
    95a4:	e1a0c000 	mov	ip, r0
    95a8:	e1a0e003 	mov	lr, r3
    95ac:	e8be000f 	ldm	lr!, {r0, r1, r2, r3}
    95b0:	e8ac000f 	stmia	ip!, {r0, r1, r2, r3}
    95b4:	e89e0003 	ldm	lr, {r0, r1}
    95b8:	e88c0003 	stm	ip, {r0, r1}
/mnt/c/user/privateWorkspace/School/OS/SP/KIV-RTOS/Odevzdani/src/userspace/semestral_task/src/evolution/generation.cpp:58 (discriminator 1)
        j++;
    95bc:	e51b300c 	ldr	r3, [fp, #-12]
    95c0:	e2833001 	add	r3, r3, #1
    95c4:	e50b300c 	str	r3, [fp, #-12]
/mnt/c/user/privateWorkspace/School/OS/SP/KIV-RTOS/Odevzdani/src/userspace/semestral_task/src/evolution/generation.cpp:56 (discriminator 1)
    for (; i < GEN_SIZE; i++) {
    95c8:	e51b3008 	ldr	r3, [fp, #-8]
    95cc:	e2833001 	add	r3, r3, #1
    95d0:	e50b3008 	str	r3, [fp, #-8]
    95d4:	eaffffe1 	b	9560 <_ZN10Generation8next_genEPS_+0xbc>
/mnt/c/user/privateWorkspace/School/OS/SP/KIV-RTOS/Odevzdani/src/userspace/semestral_task/src/evolution/generation.cpp:62
    }

    // --- mutate 40%? last
    for (int i = (GEN_SIZE / 100) * 60; i < GEN_SIZE; i++)
    95d8:	e3a0303c 	mov	r3, #60	; 0x3c
    95dc:	e50b3010 	str	r3, [fp, #-16]
/mnt/c/user/privateWorkspace/School/OS/SP/KIV-RTOS/Odevzdani/src/userspace/semestral_task/src/evolution/generation.cpp:62 (discriminator 3)
    95e0:	e51b3010 	ldr	r3, [fp, #-16]
    95e4:	e3530063 	cmp	r3, #99	; 0x63
    95e8:	ca00000c 	bgt	9620 <_ZN10Generation8next_genEPS_+0x17c>
/mnt/c/user/privateWorkspace/School/OS/SP/KIV-RTOS/Odevzdani/src/userspace/semestral_task/src/evolution/generation.cpp:63 (discriminator 2)
        g->gen[i].mutate();
    95ec:	e51b2010 	ldr	r2, [fp, #-16]
    95f0:	e1a03002 	mov	r3, r2
    95f4:	e1a03083 	lsl	r3, r3, #1
    95f8:	e0833002 	add	r3, r3, r2
    95fc:	e1a03183 	lsl	r3, r3, #3
    9600:	e51b201c 	ldr	r2, [fp, #-28]	; 0xffffffe4
    9604:	e0823003 	add	r3, r2, r3
    9608:	e1a00003 	mov	r0, r3
    960c:	ebfffe65 	bl	8fa8 <_ZN10Chromosome6mutateEv>
/mnt/c/user/privateWorkspace/School/OS/SP/KIV-RTOS/Odevzdani/src/userspace/semestral_task/src/evolution/generation.cpp:62 (discriminator 2)
    for (int i = (GEN_SIZE / 100) * 60; i < GEN_SIZE; i++)
    9610:	e51b3010 	ldr	r3, [fp, #-16]
    9614:	e2833001 	add	r3, r3, #1
    9618:	e50b3010 	str	r3, [fp, #-16]
    961c:	eaffffef 	b	95e0 <_ZN10Generation8next_genEPS_+0x13c>
/mnt/c/user/privateWorkspace/School/OS/SP/KIV-RTOS/Odevzdani/src/userspace/semestral_task/src/evolution/generation.cpp:64
    9620:	e320f000 	nop	{0}
    9624:	e24bd004 	sub	sp, fp, #4
    9628:	e8bd8800 	pop	{fp, pc}

0000962c <_Z9quicksortI10ChromosomeEvPT_ii>:
_Z9quicksortI10ChromosomeEvPT_ii():
/mnt/c/user/privateWorkspace/School/OS/SP/KIV-RTOS/Odevzdani/src/userspace/../stdutils/include/quicksort.h:11
  T temp=v2;
  v2=v1;
  v1=temp;
}
template<class T>
void quicksort(T *array,int hi,int lo=0)
    962c:	e92d4800 	push	{fp, lr}
    9630:	e28db004 	add	fp, sp, #4
    9634:	e24dd018 	sub	sp, sp, #24
    9638:	e50b0010 	str	r0, [fp, #-16]
    963c:	e50b1014 	str	r1, [fp, #-20]	; 0xffffffec
    9640:	e50b2018 	str	r2, [fp, #-24]	; 0xffffffe8
/mnt/c/user/privateWorkspace/School/OS/SP/KIV-RTOS/Odevzdani/src/userspace/../stdutils/include/quicksort.h:13
{
  while(hi>lo)
    9644:	e51b2014 	ldr	r2, [fp, #-20]	; 0xffffffec
    9648:	e51b3018 	ldr	r3, [fp, #-24]	; 0xffffffe8
    964c:	e1520003 	cmp	r2, r3
    9650:	da000088 	ble	9878 <_Z9quicksortI10ChromosomeEvPT_ii+0x24c>
/mnt/c/user/privateWorkspace/School/OS/SP/KIV-RTOS/Odevzdani/src/userspace/../stdutils/include/quicksort.h:15
  {
    int i=lo;
    9654:	e51b3018 	ldr	r3, [fp, #-24]	; 0xffffffe8
    9658:	e50b3008 	str	r3, [fp, #-8]
/mnt/c/user/privateWorkspace/School/OS/SP/KIV-RTOS/Odevzdani/src/userspace/../stdutils/include/quicksort.h:16
    int j=hi;
    965c:	e51b3014 	ldr	r3, [fp, #-20]	; 0xffffffec
    9660:	e50b300c 	str	r3, [fp, #-12]
/mnt/c/user/privateWorkspace/School/OS/SP/KIV-RTOS/Odevzdani/src/userspace/../stdutils/include/quicksort.h:19
    do
    {
      while(array[i]<array[lo]&&i<j)
    9664:	e51b2008 	ldr	r2, [fp, #-8]
    9668:	e1a03002 	mov	r3, r2
    966c:	e1a03083 	lsl	r3, r3, #1
    9670:	e0833002 	add	r3, r3, r2
    9674:	e1a03183 	lsl	r3, r3, #3
    9678:	e1a02003 	mov	r2, r3
    967c:	e51b3010 	ldr	r3, [fp, #-16]
    9680:	e0830002 	add	r0, r3, r2
    9684:	e51b2018 	ldr	r2, [fp, #-24]	; 0xffffffe8
    9688:	e1a03002 	mov	r3, r2
    968c:	e1a03083 	lsl	r3, r3, #1
    9690:	e0833002 	add	r3, r3, r2
    9694:	e1a03183 	lsl	r3, r3, #3
    9698:	e1a02003 	mov	r2, r3
    969c:	e51b3010 	ldr	r3, [fp, #-16]
    96a0:	e0833002 	add	r3, r3, r2
    96a4:	e1a01003 	mov	r1, r3
    96a8:	ebfffdbc 	bl	8da0 <_ZN10ChromosomeltERKS_>
    96ac:	e1a03000 	mov	r3, r0
    96b0:	e3530000 	cmp	r3, #0
    96b4:	0a000005 	beq	96d0 <_Z9quicksortI10ChromosomeEvPT_ii+0xa4>
/mnt/c/user/privateWorkspace/School/OS/SP/KIV-RTOS/Odevzdani/src/userspace/../stdutils/include/quicksort.h:19 (discriminator 1)
    96b8:	e51b2008 	ldr	r2, [fp, #-8]
    96bc:	e51b300c 	ldr	r3, [fp, #-12]
    96c0:	e1520003 	cmp	r2, r3
    96c4:	aa000001 	bge	96d0 <_Z9quicksortI10ChromosomeEvPT_ii+0xa4>
/mnt/c/user/privateWorkspace/School/OS/SP/KIV-RTOS/Odevzdani/src/userspace/../stdutils/include/quicksort.h:19 (discriminator 3)
    96c8:	e3a03001 	mov	r3, #1
    96cc:	ea000000 	b	96d4 <_Z9quicksortI10ChromosomeEvPT_ii+0xa8>
/mnt/c/user/privateWorkspace/School/OS/SP/KIV-RTOS/Odevzdani/src/userspace/../stdutils/include/quicksort.h:19 (discriminator 4)
    96d0:	e3a03000 	mov	r3, #0
/mnt/c/user/privateWorkspace/School/OS/SP/KIV-RTOS/Odevzdani/src/userspace/../stdutils/include/quicksort.h:19 (discriminator 6)
    96d4:	e3530000 	cmp	r3, #0
    96d8:	0a000003 	beq	96ec <_Z9quicksortI10ChromosomeEvPT_ii+0xc0>
/mnt/c/user/privateWorkspace/School/OS/SP/KIV-RTOS/Odevzdani/src/userspace/../stdutils/include/quicksort.h:20
         i++;
    96dc:	e51b3008 	ldr	r3, [fp, #-8]
    96e0:	e2833001 	add	r3, r3, #1
    96e4:	e50b3008 	str	r3, [fp, #-8]
/mnt/c/user/privateWorkspace/School/OS/SP/KIV-RTOS/Odevzdani/src/userspace/../stdutils/include/quicksort.h:19
      while(array[i]<array[lo]&&i<j)
    96e8:	eaffffdd 	b	9664 <_Z9quicksortI10ChromosomeEvPT_ii+0x38>
/mnt/c/user/privateWorkspace/School/OS/SP/KIV-RTOS/Odevzdani/src/userspace/../stdutils/include/quicksort.h:21
      while(array[--j]>array[lo])
    96ec:	e51b300c 	ldr	r3, [fp, #-12]
    96f0:	e2433001 	sub	r3, r3, #1
    96f4:	e50b300c 	str	r3, [fp, #-12]
    96f8:	e51b200c 	ldr	r2, [fp, #-12]
    96fc:	e1a03002 	mov	r3, r2
    9700:	e1a03083 	lsl	r3, r3, #1
    9704:	e0833002 	add	r3, r3, r2
    9708:	e1a03183 	lsl	r3, r3, #3
    970c:	e1a02003 	mov	r2, r3
    9710:	e51b3010 	ldr	r3, [fp, #-16]
    9714:	e0830002 	add	r0, r3, r2
    9718:	e51b2018 	ldr	r2, [fp, #-24]	; 0xffffffe8
    971c:	e1a03002 	mov	r3, r2
    9720:	e1a03083 	lsl	r3, r3, #1
    9724:	e0833002 	add	r3, r3, r2
    9728:	e1a03183 	lsl	r3, r3, #3
    972c:	e1a02003 	mov	r2, r3
    9730:	e51b3010 	ldr	r3, [fp, #-16]
    9734:	e0833002 	add	r3, r3, r2
    9738:	e1a01003 	mov	r1, r3
    973c:	ebfffda9 	bl	8de8 <_ZN10ChromosomegtERKS_>
    9740:	e1a03000 	mov	r3, r0
    9744:	e3530000 	cmp	r3, #0
    9748:	0a000000 	beq	9750 <_Z9quicksortI10ChromosomeEvPT_ii+0x124>
    974c:	eaffffe6 	b	96ec <_Z9quicksortI10ChromosomeEvPT_ii+0xc0>
/mnt/c/user/privateWorkspace/School/OS/SP/KIV-RTOS/Odevzdani/src/userspace/../stdutils/include/quicksort.h:23
                 ;
      if(i<j)
    9750:	e51b2008 	ldr	r2, [fp, #-8]
    9754:	e51b300c 	ldr	r3, [fp, #-12]
    9758:	e1520003 	cmp	r2, r3
    975c:	aa000011 	bge	97a8 <_Z9quicksortI10ChromosomeEvPT_ii+0x17c>
/mnt/c/user/privateWorkspace/School/OS/SP/KIV-RTOS/Odevzdani/src/userspace/../stdutils/include/quicksort.h:24
         swap(array[i],array[j]);
    9760:	e51b2008 	ldr	r2, [fp, #-8]
    9764:	e1a03002 	mov	r3, r2
    9768:	e1a03083 	lsl	r3, r3, #1
    976c:	e0833002 	add	r3, r3, r2
    9770:	e1a03183 	lsl	r3, r3, #3
    9774:	e1a02003 	mov	r2, r3
    9778:	e51b3010 	ldr	r3, [fp, #-16]
    977c:	e0830002 	add	r0, r3, r2
    9780:	e51b200c 	ldr	r2, [fp, #-12]
    9784:	e1a03002 	mov	r3, r2
    9788:	e1a03083 	lsl	r3, r3, #1
    978c:	e0833002 	add	r3, r3, r2
    9790:	e1a03183 	lsl	r3, r3, #3
    9794:	e1a02003 	mov	r2, r3
    9798:	e51b3010 	ldr	r3, [fp, #-16]
    979c:	e0833002 	add	r3, r3, r2
    97a0:	e1a01003 	mov	r1, r3
    97a4:	eb000036 	bl	9884 <_Z4swapI10ChromosomeEvRT_S2_>
/mnt/c/user/privateWorkspace/School/OS/SP/KIV-RTOS/Odevzdani/src/userspace/../stdutils/include/quicksort.h:25
    }while(i<j);
    97a8:	e51b2008 	ldr	r2, [fp, #-8]
    97ac:	e51b300c 	ldr	r3, [fp, #-12]
    97b0:	e1520003 	cmp	r2, r3
    97b4:	aa000000 	bge	97bc <_Z9quicksortI10ChromosomeEvPT_ii+0x190>
/mnt/c/user/privateWorkspace/School/OS/SP/KIV-RTOS/Odevzdani/src/userspace/../stdutils/include/quicksort.h:17
    do
    97b8:	eaffffa9 	b	9664 <_Z9quicksortI10ChromosomeEvPT_ii+0x38>
/mnt/c/user/privateWorkspace/School/OS/SP/KIV-RTOS/Odevzdani/src/userspace/../stdutils/include/quicksort.h:26
    swap(array[lo],array[j]);
    97bc:	e51b2018 	ldr	r2, [fp, #-24]	; 0xffffffe8
    97c0:	e1a03002 	mov	r3, r2
    97c4:	e1a03083 	lsl	r3, r3, #1
    97c8:	e0833002 	add	r3, r3, r2
    97cc:	e1a03183 	lsl	r3, r3, #3
    97d0:	e1a02003 	mov	r2, r3
    97d4:	e51b3010 	ldr	r3, [fp, #-16]
    97d8:	e0830002 	add	r0, r3, r2
    97dc:	e51b200c 	ldr	r2, [fp, #-12]
    97e0:	e1a03002 	mov	r3, r2
    97e4:	e1a03083 	lsl	r3, r3, #1
    97e8:	e0833002 	add	r3, r3, r2
    97ec:	e1a03183 	lsl	r3, r3, #3
    97f0:	e1a02003 	mov	r2, r3
    97f4:	e51b3010 	ldr	r3, [fp, #-16]
    97f8:	e0833002 	add	r3, r3, r2
    97fc:	e1a01003 	mov	r1, r3
    9800:	eb00001f 	bl	9884 <_Z4swapI10ChromosomeEvRT_S2_>
/mnt/c/user/privateWorkspace/School/OS/SP/KIV-RTOS/Odevzdani/src/userspace/../stdutils/include/quicksort.h:28
 
    if(j-lo>hi-(j+1)) {
    9804:	e51b200c 	ldr	r2, [fp, #-12]
    9808:	e51b3018 	ldr	r3, [fp, #-24]	; 0xffffffe8
    980c:	e0422003 	sub	r2, r2, r3
    9810:	e51b300c 	ldr	r3, [fp, #-12]
    9814:	e2833001 	add	r3, r3, #1
    9818:	e51b1014 	ldr	r1, [fp, #-20]	; 0xffffffec
    981c:	e0413003 	sub	r3, r1, r3
    9820:	e1520003 	cmp	r2, r3
    9824:	da000009 	ble	9850 <_Z9quicksortI10ChromosomeEvPT_ii+0x224>
/mnt/c/user/privateWorkspace/School/OS/SP/KIV-RTOS/Odevzdani/src/userspace/../stdutils/include/quicksort.h:29
       quicksort(array,j-1,lo);
    9828:	e51b300c 	ldr	r3, [fp, #-12]
    982c:	e2433001 	sub	r3, r3, #1
    9830:	e51b2018 	ldr	r2, [fp, #-24]	; 0xffffffe8
    9834:	e1a01003 	mov	r1, r3
    9838:	e51b0010 	ldr	r0, [fp, #-16]
    983c:	ebffff7a 	bl	962c <_Z9quicksortI10ChromosomeEvPT_ii>
/mnt/c/user/privateWorkspace/School/OS/SP/KIV-RTOS/Odevzdani/src/userspace/../stdutils/include/quicksort.h:30
       lo=j+1;
    9840:	e51b300c 	ldr	r3, [fp, #-12]
    9844:	e2833001 	add	r3, r3, #1
    9848:	e50b3018 	str	r3, [fp, #-24]	; 0xffffffe8
    984c:	eaffff7c 	b	9644 <_Z9quicksortI10ChromosomeEvPT_ii+0x18>
/mnt/c/user/privateWorkspace/School/OS/SP/KIV-RTOS/Odevzdani/src/userspace/../stdutils/include/quicksort.h:32
    }else{
       quicksort(array,hi,j+1);
    9850:	e51b300c 	ldr	r3, [fp, #-12]
    9854:	e2833001 	add	r3, r3, #1
    9858:	e1a02003 	mov	r2, r3
    985c:	e51b1014 	ldr	r1, [fp, #-20]	; 0xffffffec
    9860:	e51b0010 	ldr	r0, [fp, #-16]
    9864:	ebffff70 	bl	962c <_Z9quicksortI10ChromosomeEvPT_ii>
/mnt/c/user/privateWorkspace/School/OS/SP/KIV-RTOS/Odevzdani/src/userspace/../stdutils/include/quicksort.h:33
       hi=j-1;
    9868:	e51b300c 	ldr	r3, [fp, #-12]
    986c:	e2433001 	sub	r3, r3, #1
    9870:	e50b3014 	str	r3, [fp, #-20]	; 0xffffffec
/mnt/c/user/privateWorkspace/School/OS/SP/KIV-RTOS/Odevzdani/src/userspace/../stdutils/include/quicksort.h:13
  while(hi>lo)
    9874:	eaffff72 	b	9644 <_Z9quicksortI10ChromosomeEvPT_ii+0x18>
/mnt/c/user/privateWorkspace/School/OS/SP/KIV-RTOS/Odevzdani/src/userspace/../stdutils/include/quicksort.h:36
    }
  }
    9878:	e320f000 	nop	{0}
    987c:	e24bd004 	sub	sp, fp, #4
    9880:	e8bd8800 	pop	{fp, pc}

00009884 <_Z4swapI10ChromosomeEvRT_S2_>:
_Z4swapI10ChromosomeEvRT_S2_():
/mnt/c/user/privateWorkspace/School/OS/SP/KIV-RTOS/Odevzdani/src/userspace/../stdutils/include/quicksort.h:4
inline void swap(T& v1,T& v2)
    9884:	e92d4800 	push	{fp, lr}
    9888:	e28db004 	add	fp, sp, #4
    988c:	e24dd020 	sub	sp, sp, #32
    9890:	e50b0020 	str	r0, [fp, #-32]	; 0xffffffe0
    9894:	e50b1024 	str	r1, [fp, #-36]	; 0xffffffdc
/mnt/c/user/privateWorkspace/School/OS/SP/KIV-RTOS/Odevzdani/src/userspace/../stdutils/include/quicksort.h:6
  T temp=v2;
    9898:	e51b3024 	ldr	r3, [fp, #-36]	; 0xffffffdc
    989c:	e24bc01c 	sub	ip, fp, #28
    98a0:	e1a0e003 	mov	lr, r3
    98a4:	e8be000f 	ldm	lr!, {r0, r1, r2, r3}
    98a8:	e8ac000f 	stmia	ip!, {r0, r1, r2, r3}
    98ac:	e89e0003 	ldm	lr, {r0, r1}
    98b0:	e88c0003 	stm	ip, {r0, r1}
/mnt/c/user/privateWorkspace/School/OS/SP/KIV-RTOS/Odevzdani/src/userspace/../stdutils/include/quicksort.h:7
  v2=v1;
    98b4:	e51b2024 	ldr	r2, [fp, #-36]	; 0xffffffdc
    98b8:	e51b3020 	ldr	r3, [fp, #-32]	; 0xffffffe0
    98bc:	e1a0c002 	mov	ip, r2
    98c0:	e1a0e003 	mov	lr, r3
    98c4:	e8be000f 	ldm	lr!, {r0, r1, r2, r3}
    98c8:	e8ac000f 	stmia	ip!, {r0, r1, r2, r3}
    98cc:	e89e0003 	ldm	lr, {r0, r1}
    98d0:	e88c0003 	stm	ip, {r0, r1}
/mnt/c/user/privateWorkspace/School/OS/SP/KIV-RTOS/Odevzdani/src/userspace/../stdutils/include/quicksort.h:8
  v1=temp;
    98d4:	e51b3020 	ldr	r3, [fp, #-32]	; 0xffffffe0
    98d8:	e1a0e003 	mov	lr, r3
    98dc:	e24bc01c 	sub	ip, fp, #28
    98e0:	e8bc000f 	ldm	ip!, {r0, r1, r2, r3}
    98e4:	e8ae000f 	stmia	lr!, {r0, r1, r2, r3}
    98e8:	e89c0003 	ldm	ip, {r0, r1}
    98ec:	e88e0003 	stm	lr, {r0, r1}
/mnt/c/user/privateWorkspace/School/OS/SP/KIV-RTOS/Odevzdani/src/userspace/../stdutils/include/quicksort.h:9
}
    98f0:	e320f000 	nop	{0}
    98f4:	e24bd004 	sub	sp, fp, #4
    98f8:	e8bd8800 	pop	{fp, pc}

000098fc <_Z5fputsjPKc>:
_Z5fputsjPKc():
/mnt/c/user/privateWorkspace/School/OS/SP/KIV-RTOS/Odevzdani/src/userspace/semestral_task/src/utils.cpp:4
#include <utils.h>

void fputs(uint32_t file, const char* string)
{
    98fc:	e92d4800 	push	{fp, lr}
    9900:	e28db004 	add	fp, sp, #4
    9904:	e24dd008 	sub	sp, sp, #8
    9908:	e50b0008 	str	r0, [fp, #-8]
    990c:	e50b100c 	str	r1, [fp, #-12]
/mnt/c/user/privateWorkspace/School/OS/SP/KIV-RTOS/Odevzdani/src/userspace/semestral_task/src/utils.cpp:5
	write(file, string, strlen(string));
    9910:	e51b000c 	ldr	r0, [fp, #-12]
    9914:	eb000422 	bl	a9a4 <_Z6strlenPKc>
    9918:	e1a03000 	mov	r3, r0
    991c:	e1a02003 	mov	r2, r3
    9920:	e51b100c 	ldr	r1, [fp, #-12]
    9924:	e51b0008 	ldr	r0, [fp, #-8]
    9928:	eb00007b 	bl	9b1c <_Z5writejPKcj>
/mnt/c/user/privateWorkspace/School/OS/SP/KIV-RTOS/Odevzdani/src/userspace/semestral_task/src/utils.cpp:6
}
    992c:	e320f000 	nop	{0}
    9930:	e24bd004 	sub	sp, fp, #4
    9934:	e8bd8800 	pop	{fp, pc}

00009938 <_Z7printlnjPKc>:
_Z7printlnjPKc():
/mnt/c/user/privateWorkspace/School/OS/SP/KIV-RTOS/Odevzdani/src/userspace/semestral_task/src/utils.cpp:9

void println(uint32_t file, const char* string)
{
    9938:	e92d4800 	push	{fp, lr}
    993c:	e28db004 	add	fp, sp, #4
    9940:	e24dd088 	sub	sp, sp, #136	; 0x88
    9944:	e50b0088 	str	r0, [fp, #-136]	; 0xffffff78
    9948:	e50b108c 	str	r1, [fp, #-140]	; 0xffffff74
/mnt/c/user/privateWorkspace/School/OS/SP/KIV-RTOS/Odevzdani/src/userspace/semestral_task/src/utils.cpp:11
	char messageBuffer[MESSAGE_BUFFER_SIZE];
	bzero(messageBuffer, MESSAGE_BUFFER_SIZE);
    994c:	e24b3084 	sub	r3, fp, #132	; 0x84
    9950:	e3a01080 	mov	r1, #128	; 0x80
    9954:	e1a00003 	mov	r0, r3
    9958:	eb000426 	bl	a9f8 <_Z5bzeroPvi>
/mnt/c/user/privateWorkspace/School/OS/SP/KIV-RTOS/Odevzdani/src/userspace/semestral_task/src/utils.cpp:12
	strcat(messageBuffer, string);
    995c:	e24b3084 	sub	r3, fp, #132	; 0x84
    9960:	e51b108c 	ldr	r1, [fp, #-140]	; 0xffffff74
    9964:	e1a00003 	mov	r0, r3
    9968:	eb0003ad 	bl	a824 <_Z6strcatPcPKc>
/mnt/c/user/privateWorkspace/School/OS/SP/KIV-RTOS/Odevzdani/src/userspace/semestral_task/src/utils.cpp:13
	strcat(messageBuffer, NEWLINE);
    996c:	e24b3084 	sub	r3, fp, #132	; 0x84
    9970:	e59f1020 	ldr	r1, [pc, #32]	; 9998 <_Z7printlnjPKc+0x60>
    9974:	e1a00003 	mov	r0, r3
    9978:	eb0003a9 	bl	a824 <_Z6strcatPcPKc>
/mnt/c/user/privateWorkspace/School/OS/SP/KIV-RTOS/Odevzdani/src/userspace/semestral_task/src/utils.cpp:14
	fputs(file, messageBuffer);
    997c:	e24b3084 	sub	r3, fp, #132	; 0x84
    9980:	e1a01003 	mov	r1, r3
    9984:	e51b0088 	ldr	r0, [fp, #-136]	; 0xffffff78
    9988:	ebffffdb 	bl	98fc <_Z5fputsjPKc>
/mnt/c/user/privateWorkspace/School/OS/SP/KIV-RTOS/Odevzdani/src/userspace/semestral_task/src/utils.cpp:15
}
    998c:	e320f000 	nop	{0}
    9990:	e24bd004 	sub	sp, fp, #4
    9994:	e8bd8800 	pop	{fp, pc}
    9998:	0000b634 	andeq	fp, r0, r4, lsr r6

0000999c <_Z19print_str_and_floatjPKcf>:
_Z19print_str_and_floatjPKcf():
/mnt/c/user/privateWorkspace/School/OS/SP/KIV-RTOS/Odevzdani/src/userspace/semestral_task/src/utils.cpp:17

void print_str_and_float(uint32_t file, const char* string, float val) {
    999c:	e92d4800 	push	{fp, lr}
    99a0:	e28db004 	add	fp, sp, #4
    99a4:	e24dd0a0 	sub	sp, sp, #160	; 0xa0
    99a8:	e50b0098 	str	r0, [fp, #-152]	; 0xffffff68
    99ac:	e50b109c 	str	r1, [fp, #-156]	; 0xffffff64
    99b0:	ed0b0a28 	vstr	s0, [fp, #-160]	; 0xffffff60
/mnt/c/user/privateWorkspace/School/OS/SP/KIV-RTOS/Odevzdani/src/userspace/semestral_task/src/utils.cpp:21
	char messageBuffer[MESSAGE_BUFFER_SIZE];
	char tmpBuffer[TMP_BUFFER_SIZE];

	bzero(messageBuffer, MESSAGE_BUFFER_SIZE);			
    99b4:	e24b3084 	sub	r3, fp, #132	; 0x84
    99b8:	e3a01080 	mov	r1, #128	; 0x80
    99bc:	e1a00003 	mov	r0, r3
    99c0:	eb00040c 	bl	a9f8 <_Z5bzeroPvi>
/mnt/c/user/privateWorkspace/School/OS/SP/KIV-RTOS/Odevzdani/src/userspace/semestral_task/src/utils.cpp:22
	strcat(messageBuffer, string);
    99c4:	e24b3084 	sub	r3, fp, #132	; 0x84
    99c8:	e51b109c 	ldr	r1, [fp, #-156]	; 0xffffff64
    99cc:	e1a00003 	mov	r0, r3
    99d0:	eb000393 	bl	a824 <_Z6strcatPcPKc>
/mnt/c/user/privateWorkspace/School/OS/SP/KIV-RTOS/Odevzdani/src/userspace/semestral_task/src/utils.cpp:23
	ftoa(tmpBuffer, val);
    99d4:	e24b3090 	sub	r3, fp, #144	; 0x90
    99d8:	ed1b0a28 	vldr	s0, [fp, #-160]	; 0xffffff60
    99dc:	e1a00003 	mov	r0, r3
    99e0:	eb0002d1 	bl	a52c <_Z4ftoaPcf>
/mnt/c/user/privateWorkspace/School/OS/SP/KIV-RTOS/Odevzdani/src/userspace/semestral_task/src/utils.cpp:24
	strcat(messageBuffer, tmpBuffer);
    99e4:	e24b2090 	sub	r2, fp, #144	; 0x90
    99e8:	e24b3084 	sub	r3, fp, #132	; 0x84
    99ec:	e1a01002 	mov	r1, r2
    99f0:	e1a00003 	mov	r0, r3
    99f4:	eb00038a 	bl	a824 <_Z6strcatPcPKc>
/mnt/c/user/privateWorkspace/School/OS/SP/KIV-RTOS/Odevzdani/src/userspace/semestral_task/src/utils.cpp:26
	
	println(file, messageBuffer);
    99f8:	e24b3084 	sub	r3, fp, #132	; 0x84
    99fc:	e1a01003 	mov	r1, r3
    9a00:	e51b0098 	ldr	r0, [fp, #-152]	; 0xffffff68
    9a04:	ebffffcb 	bl	9938 <_Z7printlnjPKc>
/mnt/c/user/privateWorkspace/School/OS/SP/KIV-RTOS/Odevzdani/src/userspace/semestral_task/src/utils.cpp:27
}
    9a08:	e320f000 	nop	{0}
    9a0c:	e24bd004 	sub	sp, fp, #4
    9a10:	e8bd8800 	pop	{fp, pc}

00009a14 <_Z6getpidv>:
_Z6getpidv():
/mnt/c/user/privateWorkspace/School/OS/SP/KIV-RTOS/Odevzdani/src/stdlib/src/stdfile.cpp:5
#include <stdfile.h>
#include <stdstring.h>

uint32_t getpid()
{
    9a14:	e52db004 	push	{fp}		; (str fp, [sp, #-4]!)
    9a18:	e28db000 	add	fp, sp, #0
    9a1c:	e24dd00c 	sub	sp, sp, #12
/mnt/c/user/privateWorkspace/School/OS/SP/KIV-RTOS/Odevzdani/src/stdlib/src/stdfile.cpp:8
    uint32_t pid;

    asm volatile("swi 0");
    9a20:	ef000000 	svc	0x00000000
/mnt/c/user/privateWorkspace/School/OS/SP/KIV-RTOS/Odevzdani/src/stdlib/src/stdfile.cpp:9
    asm volatile("mov %0, r0" : "=r" (pid));
    9a24:	e1a03000 	mov	r3, r0
    9a28:	e50b3008 	str	r3, [fp, #-8]
/mnt/c/user/privateWorkspace/School/OS/SP/KIV-RTOS/Odevzdani/src/stdlib/src/stdfile.cpp:11

    return pid;
    9a2c:	e51b3008 	ldr	r3, [fp, #-8]
/mnt/c/user/privateWorkspace/School/OS/SP/KIV-RTOS/Odevzdani/src/stdlib/src/stdfile.cpp:12
}
    9a30:	e1a00003 	mov	r0, r3
    9a34:	e28bd000 	add	sp, fp, #0
    9a38:	e49db004 	pop	{fp}		; (ldr fp, [sp], #4)
    9a3c:	e12fff1e 	bx	lr

00009a40 <_Z9terminatei>:
_Z9terminatei():
/mnt/c/user/privateWorkspace/School/OS/SP/KIV-RTOS/Odevzdani/src/stdlib/src/stdfile.cpp:15

void terminate(int exitcode)
{
    9a40:	e52db004 	push	{fp}		; (str fp, [sp, #-4]!)
    9a44:	e28db000 	add	fp, sp, #0
    9a48:	e24dd00c 	sub	sp, sp, #12
    9a4c:	e50b0008 	str	r0, [fp, #-8]
/mnt/c/user/privateWorkspace/School/OS/SP/KIV-RTOS/Odevzdani/src/stdlib/src/stdfile.cpp:16
    asm volatile("mov r0, %0" : : "r" (exitcode));
    9a50:	e51b3008 	ldr	r3, [fp, #-8]
    9a54:	e1a00003 	mov	r0, r3
/mnt/c/user/privateWorkspace/School/OS/SP/KIV-RTOS/Odevzdani/src/stdlib/src/stdfile.cpp:17
    asm volatile("swi 1");
    9a58:	ef000001 	svc	0x00000001
/mnt/c/user/privateWorkspace/School/OS/SP/KIV-RTOS/Odevzdani/src/stdlib/src/stdfile.cpp:18
}
    9a5c:	e320f000 	nop	{0}
    9a60:	e28bd000 	add	sp, fp, #0
    9a64:	e49db004 	pop	{fp}		; (ldr fp, [sp], #4)
    9a68:	e12fff1e 	bx	lr

00009a6c <_Z11sched_yieldv>:
_Z11sched_yieldv():
/mnt/c/user/privateWorkspace/School/OS/SP/KIV-RTOS/Odevzdani/src/stdlib/src/stdfile.cpp:21

void sched_yield()
{
    9a6c:	e52db004 	push	{fp}		; (str fp, [sp, #-4]!)
    9a70:	e28db000 	add	fp, sp, #0
/mnt/c/user/privateWorkspace/School/OS/SP/KIV-RTOS/Odevzdani/src/stdlib/src/stdfile.cpp:22
    asm volatile("swi 2");
    9a74:	ef000002 	svc	0x00000002
/mnt/c/user/privateWorkspace/School/OS/SP/KIV-RTOS/Odevzdani/src/stdlib/src/stdfile.cpp:23
}
    9a78:	e320f000 	nop	{0}
    9a7c:	e28bd000 	add	sp, fp, #0
    9a80:	e49db004 	pop	{fp}		; (ldr fp, [sp], #4)
    9a84:	e12fff1e 	bx	lr

00009a88 <_Z4openPKc15NFile_Open_Mode>:
_Z4openPKc15NFile_Open_Mode():
/mnt/c/user/privateWorkspace/School/OS/SP/KIV-RTOS/Odevzdani/src/stdlib/src/stdfile.cpp:26

uint32_t open(const char* filename, NFile_Open_Mode mode)
{
    9a88:	e52db004 	push	{fp}		; (str fp, [sp, #-4]!)
    9a8c:	e28db000 	add	fp, sp, #0
    9a90:	e24dd014 	sub	sp, sp, #20
    9a94:	e50b0010 	str	r0, [fp, #-16]
    9a98:	e50b1014 	str	r1, [fp, #-20]	; 0xffffffec
/mnt/c/user/privateWorkspace/School/OS/SP/KIV-RTOS/Odevzdani/src/stdlib/src/stdfile.cpp:29
    uint32_t file;

    asm volatile("mov r0, %0" : : "r" (filename));
    9a9c:	e51b3010 	ldr	r3, [fp, #-16]
    9aa0:	e1a00003 	mov	r0, r3
/mnt/c/user/privateWorkspace/School/OS/SP/KIV-RTOS/Odevzdani/src/stdlib/src/stdfile.cpp:30
    asm volatile("mov r1, %0" : : "r" (mode));
    9aa4:	e51b3014 	ldr	r3, [fp, #-20]	; 0xffffffec
    9aa8:	e1a01003 	mov	r1, r3
/mnt/c/user/privateWorkspace/School/OS/SP/KIV-RTOS/Odevzdani/src/stdlib/src/stdfile.cpp:31
    asm volatile("swi 64");
    9aac:	ef000040 	svc	0x00000040
/mnt/c/user/privateWorkspace/School/OS/SP/KIV-RTOS/Odevzdani/src/stdlib/src/stdfile.cpp:32
    asm volatile("mov %0, r0" : "=r" (file));
    9ab0:	e1a03000 	mov	r3, r0
    9ab4:	e50b3008 	str	r3, [fp, #-8]
/mnt/c/user/privateWorkspace/School/OS/SP/KIV-RTOS/Odevzdani/src/stdlib/src/stdfile.cpp:34

    return file;
    9ab8:	e51b3008 	ldr	r3, [fp, #-8]
/mnt/c/user/privateWorkspace/School/OS/SP/KIV-RTOS/Odevzdani/src/stdlib/src/stdfile.cpp:35
}
    9abc:	e1a00003 	mov	r0, r3
    9ac0:	e28bd000 	add	sp, fp, #0
    9ac4:	e49db004 	pop	{fp}		; (ldr fp, [sp], #4)
    9ac8:	e12fff1e 	bx	lr

00009acc <_Z4readjPcj>:
_Z4readjPcj():
/mnt/c/user/privateWorkspace/School/OS/SP/KIV-RTOS/Odevzdani/src/stdlib/src/stdfile.cpp:38

uint32_t read(uint32_t file, char* const buffer, uint32_t size)
{
    9acc:	e52db004 	push	{fp}		; (str fp, [sp, #-4]!)
    9ad0:	e28db000 	add	fp, sp, #0
    9ad4:	e24dd01c 	sub	sp, sp, #28
    9ad8:	e50b0010 	str	r0, [fp, #-16]
    9adc:	e50b1014 	str	r1, [fp, #-20]	; 0xffffffec
    9ae0:	e50b2018 	str	r2, [fp, #-24]	; 0xffffffe8
/mnt/c/user/privateWorkspace/School/OS/SP/KIV-RTOS/Odevzdani/src/stdlib/src/stdfile.cpp:41
    uint32_t rdnum;

    asm volatile("mov r0, %0" : : "r" (file));
    9ae4:	e51b3010 	ldr	r3, [fp, #-16]
    9ae8:	e1a00003 	mov	r0, r3
/mnt/c/user/privateWorkspace/School/OS/SP/KIV-RTOS/Odevzdani/src/stdlib/src/stdfile.cpp:42
    asm volatile("mov r1, %0" : : "r" (buffer));
    9aec:	e51b3014 	ldr	r3, [fp, #-20]	; 0xffffffec
    9af0:	e1a01003 	mov	r1, r3
/mnt/c/user/privateWorkspace/School/OS/SP/KIV-RTOS/Odevzdani/src/stdlib/src/stdfile.cpp:43
    asm volatile("mov r2, %0" : : "r" (size));
    9af4:	e51b3018 	ldr	r3, [fp, #-24]	; 0xffffffe8
    9af8:	e1a02003 	mov	r2, r3
/mnt/c/user/privateWorkspace/School/OS/SP/KIV-RTOS/Odevzdani/src/stdlib/src/stdfile.cpp:44
    asm volatile("swi 65");
    9afc:	ef000041 	svc	0x00000041
/mnt/c/user/privateWorkspace/School/OS/SP/KIV-RTOS/Odevzdani/src/stdlib/src/stdfile.cpp:45
    asm volatile("mov %0, r0" : "=r" (rdnum));
    9b00:	e1a03000 	mov	r3, r0
    9b04:	e50b3008 	str	r3, [fp, #-8]
/mnt/c/user/privateWorkspace/School/OS/SP/KIV-RTOS/Odevzdani/src/stdlib/src/stdfile.cpp:47

    return rdnum;
    9b08:	e51b3008 	ldr	r3, [fp, #-8]
/mnt/c/user/privateWorkspace/School/OS/SP/KIV-RTOS/Odevzdani/src/stdlib/src/stdfile.cpp:48
}
    9b0c:	e1a00003 	mov	r0, r3
    9b10:	e28bd000 	add	sp, fp, #0
    9b14:	e49db004 	pop	{fp}		; (ldr fp, [sp], #4)
    9b18:	e12fff1e 	bx	lr

00009b1c <_Z5writejPKcj>:
_Z5writejPKcj():
/mnt/c/user/privateWorkspace/School/OS/SP/KIV-RTOS/Odevzdani/src/stdlib/src/stdfile.cpp:51

uint32_t write(uint32_t file, const char* buffer, uint32_t size)
{
    9b1c:	e52db004 	push	{fp}		; (str fp, [sp, #-4]!)
    9b20:	e28db000 	add	fp, sp, #0
    9b24:	e24dd01c 	sub	sp, sp, #28
    9b28:	e50b0010 	str	r0, [fp, #-16]
    9b2c:	e50b1014 	str	r1, [fp, #-20]	; 0xffffffec
    9b30:	e50b2018 	str	r2, [fp, #-24]	; 0xffffffe8
/mnt/c/user/privateWorkspace/School/OS/SP/KIV-RTOS/Odevzdani/src/stdlib/src/stdfile.cpp:54
    uint32_t wrnum;

    asm volatile("mov r0, %0" : : "r" (file));
    9b34:	e51b3010 	ldr	r3, [fp, #-16]
    9b38:	e1a00003 	mov	r0, r3
/mnt/c/user/privateWorkspace/School/OS/SP/KIV-RTOS/Odevzdani/src/stdlib/src/stdfile.cpp:55
    asm volatile("mov r1, %0" : : "r" (buffer));
    9b3c:	e51b3014 	ldr	r3, [fp, #-20]	; 0xffffffec
    9b40:	e1a01003 	mov	r1, r3
/mnt/c/user/privateWorkspace/School/OS/SP/KIV-RTOS/Odevzdani/src/stdlib/src/stdfile.cpp:56
    asm volatile("mov r2, %0" : : "r" (size));
    9b44:	e51b3018 	ldr	r3, [fp, #-24]	; 0xffffffe8
    9b48:	e1a02003 	mov	r2, r3
/mnt/c/user/privateWorkspace/School/OS/SP/KIV-RTOS/Odevzdani/src/stdlib/src/stdfile.cpp:57
    asm volatile("swi 66");
    9b4c:	ef000042 	svc	0x00000042
/mnt/c/user/privateWorkspace/School/OS/SP/KIV-RTOS/Odevzdani/src/stdlib/src/stdfile.cpp:58
    asm volatile("mov %0, r0" : "=r" (wrnum));
    9b50:	e1a03000 	mov	r3, r0
    9b54:	e50b3008 	str	r3, [fp, #-8]
/mnt/c/user/privateWorkspace/School/OS/SP/KIV-RTOS/Odevzdani/src/stdlib/src/stdfile.cpp:60

    return wrnum;
    9b58:	e51b3008 	ldr	r3, [fp, #-8]
/mnt/c/user/privateWorkspace/School/OS/SP/KIV-RTOS/Odevzdani/src/stdlib/src/stdfile.cpp:61
}
    9b5c:	e1a00003 	mov	r0, r3
    9b60:	e28bd000 	add	sp, fp, #0
    9b64:	e49db004 	pop	{fp}		; (ldr fp, [sp], #4)
    9b68:	e12fff1e 	bx	lr

00009b6c <_Z5closej>:
_Z5closej():
/mnt/c/user/privateWorkspace/School/OS/SP/KIV-RTOS/Odevzdani/src/stdlib/src/stdfile.cpp:64

void close(uint32_t file)
{
    9b6c:	e52db004 	push	{fp}		; (str fp, [sp, #-4]!)
    9b70:	e28db000 	add	fp, sp, #0
    9b74:	e24dd00c 	sub	sp, sp, #12
    9b78:	e50b0008 	str	r0, [fp, #-8]
/mnt/c/user/privateWorkspace/School/OS/SP/KIV-RTOS/Odevzdani/src/stdlib/src/stdfile.cpp:65
    asm volatile("mov r0, %0" : : "r" (file));
    9b7c:	e51b3008 	ldr	r3, [fp, #-8]
    9b80:	e1a00003 	mov	r0, r3
/mnt/c/user/privateWorkspace/School/OS/SP/KIV-RTOS/Odevzdani/src/stdlib/src/stdfile.cpp:66
    asm volatile("swi 67");
    9b84:	ef000043 	svc	0x00000043
/mnt/c/user/privateWorkspace/School/OS/SP/KIV-RTOS/Odevzdani/src/stdlib/src/stdfile.cpp:67
}
    9b88:	e320f000 	nop	{0}
    9b8c:	e28bd000 	add	sp, fp, #0
    9b90:	e49db004 	pop	{fp}		; (ldr fp, [sp], #4)
    9b94:	e12fff1e 	bx	lr

00009b98 <_Z5ioctlj16NIOCtl_OperationPv>:
_Z5ioctlj16NIOCtl_OperationPv():
/mnt/c/user/privateWorkspace/School/OS/SP/KIV-RTOS/Odevzdani/src/stdlib/src/stdfile.cpp:70

uint32_t ioctl(uint32_t file, NIOCtl_Operation operation, void* param)
{
    9b98:	e52db004 	push	{fp}		; (str fp, [sp, #-4]!)
    9b9c:	e28db000 	add	fp, sp, #0
    9ba0:	e24dd01c 	sub	sp, sp, #28
    9ba4:	e50b0010 	str	r0, [fp, #-16]
    9ba8:	e50b1014 	str	r1, [fp, #-20]	; 0xffffffec
    9bac:	e50b2018 	str	r2, [fp, #-24]	; 0xffffffe8
/mnt/c/user/privateWorkspace/School/OS/SP/KIV-RTOS/Odevzdani/src/stdlib/src/stdfile.cpp:73
    uint32_t retcode;

    asm volatile("mov r0, %0" : : "r" (file));
    9bb0:	e51b3010 	ldr	r3, [fp, #-16]
    9bb4:	e1a00003 	mov	r0, r3
/mnt/c/user/privateWorkspace/School/OS/SP/KIV-RTOS/Odevzdani/src/stdlib/src/stdfile.cpp:74
    asm volatile("mov r1, %0" : : "r" (operation));
    9bb8:	e51b3014 	ldr	r3, [fp, #-20]	; 0xffffffec
    9bbc:	e1a01003 	mov	r1, r3
/mnt/c/user/privateWorkspace/School/OS/SP/KIV-RTOS/Odevzdani/src/stdlib/src/stdfile.cpp:75
    asm volatile("mov r2, %0" : : "r" (param));
    9bc0:	e51b3018 	ldr	r3, [fp, #-24]	; 0xffffffe8
    9bc4:	e1a02003 	mov	r2, r3
/mnt/c/user/privateWorkspace/School/OS/SP/KIV-RTOS/Odevzdani/src/stdlib/src/stdfile.cpp:76
    asm volatile("swi 68");
    9bc8:	ef000044 	svc	0x00000044
/mnt/c/user/privateWorkspace/School/OS/SP/KIV-RTOS/Odevzdani/src/stdlib/src/stdfile.cpp:77
    asm volatile("mov %0, r0" : "=r" (retcode));
    9bcc:	e1a03000 	mov	r3, r0
    9bd0:	e50b3008 	str	r3, [fp, #-8]
/mnt/c/user/privateWorkspace/School/OS/SP/KIV-RTOS/Odevzdani/src/stdlib/src/stdfile.cpp:79

    return retcode;
    9bd4:	e51b3008 	ldr	r3, [fp, #-8]
/mnt/c/user/privateWorkspace/School/OS/SP/KIV-RTOS/Odevzdani/src/stdlib/src/stdfile.cpp:80
}
    9bd8:	e1a00003 	mov	r0, r3
    9bdc:	e28bd000 	add	sp, fp, #0
    9be0:	e49db004 	pop	{fp}		; (ldr fp, [sp], #4)
    9be4:	e12fff1e 	bx	lr

00009be8 <_Z6notifyjj>:
_Z6notifyjj():
/mnt/c/user/privateWorkspace/School/OS/SP/KIV-RTOS/Odevzdani/src/stdlib/src/stdfile.cpp:83

uint32_t notify(uint32_t file, uint32_t count)
{
    9be8:	e52db004 	push	{fp}		; (str fp, [sp, #-4]!)
    9bec:	e28db000 	add	fp, sp, #0
    9bf0:	e24dd014 	sub	sp, sp, #20
    9bf4:	e50b0010 	str	r0, [fp, #-16]
    9bf8:	e50b1014 	str	r1, [fp, #-20]	; 0xffffffec
/mnt/c/user/privateWorkspace/School/OS/SP/KIV-RTOS/Odevzdani/src/stdlib/src/stdfile.cpp:86
    uint32_t retcnt;

    asm volatile("mov r0, %0" : : "r" (file));
    9bfc:	e51b3010 	ldr	r3, [fp, #-16]
    9c00:	e1a00003 	mov	r0, r3
/mnt/c/user/privateWorkspace/School/OS/SP/KIV-RTOS/Odevzdani/src/stdlib/src/stdfile.cpp:87
    asm volatile("mov r1, %0" : : "r" (count));
    9c04:	e51b3014 	ldr	r3, [fp, #-20]	; 0xffffffec
    9c08:	e1a01003 	mov	r1, r3
/mnt/c/user/privateWorkspace/School/OS/SP/KIV-RTOS/Odevzdani/src/stdlib/src/stdfile.cpp:88
    asm volatile("swi 69");
    9c0c:	ef000045 	svc	0x00000045
/mnt/c/user/privateWorkspace/School/OS/SP/KIV-RTOS/Odevzdani/src/stdlib/src/stdfile.cpp:89
    asm volatile("mov %0, r0" : "=r" (retcnt));
    9c10:	e1a03000 	mov	r3, r0
    9c14:	e50b3008 	str	r3, [fp, #-8]
/mnt/c/user/privateWorkspace/School/OS/SP/KIV-RTOS/Odevzdani/src/stdlib/src/stdfile.cpp:91

    return retcnt;
    9c18:	e51b3008 	ldr	r3, [fp, #-8]
/mnt/c/user/privateWorkspace/School/OS/SP/KIV-RTOS/Odevzdani/src/stdlib/src/stdfile.cpp:92
}
    9c1c:	e1a00003 	mov	r0, r3
    9c20:	e28bd000 	add	sp, fp, #0
    9c24:	e49db004 	pop	{fp}		; (ldr fp, [sp], #4)
    9c28:	e12fff1e 	bx	lr

00009c2c <_Z4waitjjj>:
_Z4waitjjj():
/mnt/c/user/privateWorkspace/School/OS/SP/KIV-RTOS/Odevzdani/src/stdlib/src/stdfile.cpp:95

NSWI_Result_Code wait(uint32_t file, uint32_t count, uint32_t notified_deadline)
{
    9c2c:	e52db004 	push	{fp}		; (str fp, [sp, #-4]!)
    9c30:	e28db000 	add	fp, sp, #0
    9c34:	e24dd01c 	sub	sp, sp, #28
    9c38:	e50b0010 	str	r0, [fp, #-16]
    9c3c:	e50b1014 	str	r1, [fp, #-20]	; 0xffffffec
    9c40:	e50b2018 	str	r2, [fp, #-24]	; 0xffffffe8
/mnt/c/user/privateWorkspace/School/OS/SP/KIV-RTOS/Odevzdani/src/stdlib/src/stdfile.cpp:98
    NSWI_Result_Code retcode;

    asm volatile("mov r0, %0" : : "r" (file));
    9c44:	e51b3010 	ldr	r3, [fp, #-16]
    9c48:	e1a00003 	mov	r0, r3
/mnt/c/user/privateWorkspace/School/OS/SP/KIV-RTOS/Odevzdani/src/stdlib/src/stdfile.cpp:99
    asm volatile("mov r1, %0" : : "r" (count));
    9c4c:	e51b3014 	ldr	r3, [fp, #-20]	; 0xffffffec
    9c50:	e1a01003 	mov	r1, r3
/mnt/c/user/privateWorkspace/School/OS/SP/KIV-RTOS/Odevzdani/src/stdlib/src/stdfile.cpp:100
    asm volatile("mov r2, %0" : : "r" (notified_deadline));
    9c54:	e51b3018 	ldr	r3, [fp, #-24]	; 0xffffffe8
    9c58:	e1a02003 	mov	r2, r3
/mnt/c/user/privateWorkspace/School/OS/SP/KIV-RTOS/Odevzdani/src/stdlib/src/stdfile.cpp:101
    asm volatile("swi 70");
    9c5c:	ef000046 	svc	0x00000046
/mnt/c/user/privateWorkspace/School/OS/SP/KIV-RTOS/Odevzdani/src/stdlib/src/stdfile.cpp:102
    asm volatile("mov %0, r0" : "=r" (retcode));
    9c60:	e1a03000 	mov	r3, r0
    9c64:	e50b3008 	str	r3, [fp, #-8]
/mnt/c/user/privateWorkspace/School/OS/SP/KIV-RTOS/Odevzdani/src/stdlib/src/stdfile.cpp:104

    return retcode;
    9c68:	e51b3008 	ldr	r3, [fp, #-8]
/mnt/c/user/privateWorkspace/School/OS/SP/KIV-RTOS/Odevzdani/src/stdlib/src/stdfile.cpp:105
}
    9c6c:	e1a00003 	mov	r0, r3
    9c70:	e28bd000 	add	sp, fp, #0
    9c74:	e49db004 	pop	{fp}		; (ldr fp, [sp], #4)
    9c78:	e12fff1e 	bx	lr

00009c7c <_Z5sleepjj>:
_Z5sleepjj():
/mnt/c/user/privateWorkspace/School/OS/SP/KIV-RTOS/Odevzdani/src/stdlib/src/stdfile.cpp:108

bool sleep(uint32_t ticks, uint32_t notified_deadline)
{
    9c7c:	e52db004 	push	{fp}		; (str fp, [sp, #-4]!)
    9c80:	e28db000 	add	fp, sp, #0
    9c84:	e24dd014 	sub	sp, sp, #20
    9c88:	e50b0010 	str	r0, [fp, #-16]
    9c8c:	e50b1014 	str	r1, [fp, #-20]	; 0xffffffec
/mnt/c/user/privateWorkspace/School/OS/SP/KIV-RTOS/Odevzdani/src/stdlib/src/stdfile.cpp:111
    uint32_t retcode;

    asm volatile("mov r0, %0" : : "r" (ticks));
    9c90:	e51b3010 	ldr	r3, [fp, #-16]
    9c94:	e1a00003 	mov	r0, r3
/mnt/c/user/privateWorkspace/School/OS/SP/KIV-RTOS/Odevzdani/src/stdlib/src/stdfile.cpp:112
    asm volatile("mov r1, %0" : : "r" (notified_deadline));
    9c98:	e51b3014 	ldr	r3, [fp, #-20]	; 0xffffffec
    9c9c:	e1a01003 	mov	r1, r3
/mnt/c/user/privateWorkspace/School/OS/SP/KIV-RTOS/Odevzdani/src/stdlib/src/stdfile.cpp:113
    asm volatile("swi 3");
    9ca0:	ef000003 	svc	0x00000003
/mnt/c/user/privateWorkspace/School/OS/SP/KIV-RTOS/Odevzdani/src/stdlib/src/stdfile.cpp:114
    asm volatile("mov %0, r0" : "=r" (retcode));
    9ca4:	e1a03000 	mov	r3, r0
    9ca8:	e50b3008 	str	r3, [fp, #-8]
/mnt/c/user/privateWorkspace/School/OS/SP/KIV-RTOS/Odevzdani/src/stdlib/src/stdfile.cpp:116

    return retcode;
    9cac:	e51b3008 	ldr	r3, [fp, #-8]
    9cb0:	e3530000 	cmp	r3, #0
    9cb4:	13a03001 	movne	r3, #1
    9cb8:	03a03000 	moveq	r3, #0
    9cbc:	e6ef3073 	uxtb	r3, r3
/mnt/c/user/privateWorkspace/School/OS/SP/KIV-RTOS/Odevzdani/src/stdlib/src/stdfile.cpp:117
}
    9cc0:	e1a00003 	mov	r0, r3
    9cc4:	e28bd000 	add	sp, fp, #0
    9cc8:	e49db004 	pop	{fp}		; (ldr fp, [sp], #4)
    9ccc:	e12fff1e 	bx	lr

00009cd0 <_Z24get_active_process_countv>:
_Z24get_active_process_countv():
/mnt/c/user/privateWorkspace/School/OS/SP/KIV-RTOS/Odevzdani/src/stdlib/src/stdfile.cpp:120

uint32_t get_active_process_count()
{
    9cd0:	e52db004 	push	{fp}		; (str fp, [sp, #-4]!)
    9cd4:	e28db000 	add	fp, sp, #0
    9cd8:	e24dd00c 	sub	sp, sp, #12
/mnt/c/user/privateWorkspace/School/OS/SP/KIV-RTOS/Odevzdani/src/stdlib/src/stdfile.cpp:121
    const NGet_Sched_Info_Type req = NGet_Sched_Info_Type::Active_Process_Count;
    9cdc:	e3a03000 	mov	r3, #0
    9ce0:	e50b3008 	str	r3, [fp, #-8]
/mnt/c/user/privateWorkspace/School/OS/SP/KIV-RTOS/Odevzdani/src/stdlib/src/stdfile.cpp:124
    uint32_t retval;

    asm volatile("mov r0, %0" : : "r" (req));
    9ce4:	e3a03000 	mov	r3, #0
    9ce8:	e1a00003 	mov	r0, r3
/mnt/c/user/privateWorkspace/School/OS/SP/KIV-RTOS/Odevzdani/src/stdlib/src/stdfile.cpp:125
    asm volatile("mov r1, %0" : : "r" (&retval));
    9cec:	e24b300c 	sub	r3, fp, #12
    9cf0:	e1a01003 	mov	r1, r3
/mnt/c/user/privateWorkspace/School/OS/SP/KIV-RTOS/Odevzdani/src/stdlib/src/stdfile.cpp:126
    asm volatile("swi 4");
    9cf4:	ef000004 	svc	0x00000004
/mnt/c/user/privateWorkspace/School/OS/SP/KIV-RTOS/Odevzdani/src/stdlib/src/stdfile.cpp:128

    return retval;
    9cf8:	e51b300c 	ldr	r3, [fp, #-12]
/mnt/c/user/privateWorkspace/School/OS/SP/KIV-RTOS/Odevzdani/src/stdlib/src/stdfile.cpp:129
}
    9cfc:	e1a00003 	mov	r0, r3
    9d00:	e28bd000 	add	sp, fp, #0
    9d04:	e49db004 	pop	{fp}		; (ldr fp, [sp], #4)
    9d08:	e12fff1e 	bx	lr

00009d0c <_Z14get_tick_countv>:
_Z14get_tick_countv():
/mnt/c/user/privateWorkspace/School/OS/SP/KIV-RTOS/Odevzdani/src/stdlib/src/stdfile.cpp:132

uint32_t get_tick_count()
{
    9d0c:	e52db004 	push	{fp}		; (str fp, [sp, #-4]!)
    9d10:	e28db000 	add	fp, sp, #0
    9d14:	e24dd00c 	sub	sp, sp, #12
/mnt/c/user/privateWorkspace/School/OS/SP/KIV-RTOS/Odevzdani/src/stdlib/src/stdfile.cpp:133
    const NGet_Sched_Info_Type req = NGet_Sched_Info_Type::Tick_Count;
    9d18:	e3a03001 	mov	r3, #1
    9d1c:	e50b3008 	str	r3, [fp, #-8]
/mnt/c/user/privateWorkspace/School/OS/SP/KIV-RTOS/Odevzdani/src/stdlib/src/stdfile.cpp:136
    uint32_t retval;

    asm volatile("mov r0, %0" : : "r" (req));
    9d20:	e3a03001 	mov	r3, #1
    9d24:	e1a00003 	mov	r0, r3
/mnt/c/user/privateWorkspace/School/OS/SP/KIV-RTOS/Odevzdani/src/stdlib/src/stdfile.cpp:137
    asm volatile("mov r1, %0" : : "r" (&retval));
    9d28:	e24b300c 	sub	r3, fp, #12
    9d2c:	e1a01003 	mov	r1, r3
/mnt/c/user/privateWorkspace/School/OS/SP/KIV-RTOS/Odevzdani/src/stdlib/src/stdfile.cpp:138
    asm volatile("swi 4");
    9d30:	ef000004 	svc	0x00000004
/mnt/c/user/privateWorkspace/School/OS/SP/KIV-RTOS/Odevzdani/src/stdlib/src/stdfile.cpp:140

    return retval;
    9d34:	e51b300c 	ldr	r3, [fp, #-12]
/mnt/c/user/privateWorkspace/School/OS/SP/KIV-RTOS/Odevzdani/src/stdlib/src/stdfile.cpp:141
}
    9d38:	e1a00003 	mov	r0, r3
    9d3c:	e28bd000 	add	sp, fp, #0
    9d40:	e49db004 	pop	{fp}		; (ldr fp, [sp], #4)
    9d44:	e12fff1e 	bx	lr

00009d48 <_Z17set_task_deadlinej>:
_Z17set_task_deadlinej():
/mnt/c/user/privateWorkspace/School/OS/SP/KIV-RTOS/Odevzdani/src/stdlib/src/stdfile.cpp:144

void set_task_deadline(uint32_t tick_count_required)
{
    9d48:	e52db004 	push	{fp}		; (str fp, [sp, #-4]!)
    9d4c:	e28db000 	add	fp, sp, #0
    9d50:	e24dd014 	sub	sp, sp, #20
    9d54:	e50b0010 	str	r0, [fp, #-16]
/mnt/c/user/privateWorkspace/School/OS/SP/KIV-RTOS/Odevzdani/src/stdlib/src/stdfile.cpp:145
    const NDeadline_Subservice req = NDeadline_Subservice::Set_Relative;
    9d58:	e3a03000 	mov	r3, #0
    9d5c:	e50b3008 	str	r3, [fp, #-8]
/mnt/c/user/privateWorkspace/School/OS/SP/KIV-RTOS/Odevzdani/src/stdlib/src/stdfile.cpp:147

    asm volatile("mov r0, %0" : : "r" (req));
    9d60:	e3a03000 	mov	r3, #0
    9d64:	e1a00003 	mov	r0, r3
/mnt/c/user/privateWorkspace/School/OS/SP/KIV-RTOS/Odevzdani/src/stdlib/src/stdfile.cpp:148
    asm volatile("mov r1, %0" : : "r" (&tick_count_required));
    9d68:	e24b3010 	sub	r3, fp, #16
    9d6c:	e1a01003 	mov	r1, r3
/mnt/c/user/privateWorkspace/School/OS/SP/KIV-RTOS/Odevzdani/src/stdlib/src/stdfile.cpp:149
    asm volatile("swi 5");
    9d70:	ef000005 	svc	0x00000005
/mnt/c/user/privateWorkspace/School/OS/SP/KIV-RTOS/Odevzdani/src/stdlib/src/stdfile.cpp:150
}
    9d74:	e320f000 	nop	{0}
    9d78:	e28bd000 	add	sp, fp, #0
    9d7c:	e49db004 	pop	{fp}		; (ldr fp, [sp], #4)
    9d80:	e12fff1e 	bx	lr

00009d84 <_Z26get_task_ticks_to_deadlinev>:
_Z26get_task_ticks_to_deadlinev():
/mnt/c/user/privateWorkspace/School/OS/SP/KIV-RTOS/Odevzdani/src/stdlib/src/stdfile.cpp:153

uint32_t get_task_ticks_to_deadline()
{
    9d84:	e52db004 	push	{fp}		; (str fp, [sp, #-4]!)
    9d88:	e28db000 	add	fp, sp, #0
    9d8c:	e24dd00c 	sub	sp, sp, #12
/mnt/c/user/privateWorkspace/School/OS/SP/KIV-RTOS/Odevzdani/src/stdlib/src/stdfile.cpp:154
    const NDeadline_Subservice req = NDeadline_Subservice::Get_Remaining;
    9d90:	e3a03001 	mov	r3, #1
    9d94:	e50b3008 	str	r3, [fp, #-8]
/mnt/c/user/privateWorkspace/School/OS/SP/KIV-RTOS/Odevzdani/src/stdlib/src/stdfile.cpp:157
    uint32_t ticks;

    asm volatile("mov r0, %0" : : "r" (req));
    9d98:	e3a03001 	mov	r3, #1
    9d9c:	e1a00003 	mov	r0, r3
/mnt/c/user/privateWorkspace/School/OS/SP/KIV-RTOS/Odevzdani/src/stdlib/src/stdfile.cpp:158
    asm volatile("mov r1, %0" : : "r" (&ticks));
    9da0:	e24b300c 	sub	r3, fp, #12
    9da4:	e1a01003 	mov	r1, r3
/mnt/c/user/privateWorkspace/School/OS/SP/KIV-RTOS/Odevzdani/src/stdlib/src/stdfile.cpp:159
    asm volatile("swi 5");
    9da8:	ef000005 	svc	0x00000005
/mnt/c/user/privateWorkspace/School/OS/SP/KIV-RTOS/Odevzdani/src/stdlib/src/stdfile.cpp:161

    return ticks;
    9dac:	e51b300c 	ldr	r3, [fp, #-12]
/mnt/c/user/privateWorkspace/School/OS/SP/KIV-RTOS/Odevzdani/src/stdlib/src/stdfile.cpp:162
}
    9db0:	e1a00003 	mov	r0, r3
    9db4:	e28bd000 	add	sp, fp, #0
    9db8:	e49db004 	pop	{fp}		; (ldr fp, [sp], #4)
    9dbc:	e12fff1e 	bx	lr

00009dc0 <_Z4pipePKcj>:
_Z4pipePKcj():
/mnt/c/user/privateWorkspace/School/OS/SP/KIV-RTOS/Odevzdani/src/stdlib/src/stdfile.cpp:167

const char Pipe_File_Prefix[] = "SYS:pipe/";

uint32_t pipe(const char* name, uint32_t buf_size)
{
    9dc0:	e92d4800 	push	{fp, lr}
    9dc4:	e28db004 	add	fp, sp, #4
    9dc8:	e24dd050 	sub	sp, sp, #80	; 0x50
    9dcc:	e50b0050 	str	r0, [fp, #-80]	; 0xffffffb0
    9dd0:	e50b1054 	str	r1, [fp, #-84]	; 0xffffffac
/mnt/c/user/privateWorkspace/School/OS/SP/KIV-RTOS/Odevzdani/src/stdlib/src/stdfile.cpp:169
    char fname[64];
    strncpy(fname, Pipe_File_Prefix, sizeof(Pipe_File_Prefix));
    9dd4:	e24b3048 	sub	r3, fp, #72	; 0x48
    9dd8:	e3a0200a 	mov	r2, #10
    9ddc:	e59f1088 	ldr	r1, [pc, #136]	; 9e6c <_Z4pipePKcj+0xac>
    9de0:	e1a00003 	mov	r0, r3
    9de4:	eb00025e 	bl	a764 <_Z7strncpyPcPKci>
/mnt/c/user/privateWorkspace/School/OS/SP/KIV-RTOS/Odevzdani/src/stdlib/src/stdfile.cpp:170
    strncpy(fname + sizeof(Pipe_File_Prefix), name, sizeof(fname) - sizeof(Pipe_File_Prefix) - 1);
    9de8:	e24b3048 	sub	r3, fp, #72	; 0x48
    9dec:	e283300a 	add	r3, r3, #10
    9df0:	e3a02035 	mov	r2, #53	; 0x35
    9df4:	e51b1050 	ldr	r1, [fp, #-80]	; 0xffffffb0
    9df8:	e1a00003 	mov	r0, r3
    9dfc:	eb000258 	bl	a764 <_Z7strncpyPcPKci>
/mnt/c/user/privateWorkspace/School/OS/SP/KIV-RTOS/Odevzdani/src/stdlib/src/stdfile.cpp:172

    int ncur = sizeof(Pipe_File_Prefix) + strlen(name);
    9e00:	e51b0050 	ldr	r0, [fp, #-80]	; 0xffffffb0
    9e04:	eb0002e6 	bl	a9a4 <_Z6strlenPKc>
    9e08:	e1a03000 	mov	r3, r0
    9e0c:	e283300a 	add	r3, r3, #10
    9e10:	e50b3008 	str	r3, [fp, #-8]
/mnt/c/user/privateWorkspace/School/OS/SP/KIV-RTOS/Odevzdani/src/stdlib/src/stdfile.cpp:174

    fname[ncur++] = '#';
    9e14:	e51b3008 	ldr	r3, [fp, #-8]
    9e18:	e2832001 	add	r2, r3, #1
    9e1c:	e50b2008 	str	r2, [fp, #-8]
    9e20:	e24b2004 	sub	r2, fp, #4
    9e24:	e0823003 	add	r3, r2, r3
    9e28:	e3a02023 	mov	r2, #35	; 0x23
    9e2c:	e5432044 	strb	r2, [r3, #-68]	; 0xffffffbc
/mnt/c/user/privateWorkspace/School/OS/SP/KIV-RTOS/Odevzdani/src/stdlib/src/stdfile.cpp:176

    itoa(buf_size, &fname[ncur], 10);
    9e30:	e24b2048 	sub	r2, fp, #72	; 0x48
    9e34:	e51b3008 	ldr	r3, [fp, #-8]
    9e38:	e0823003 	add	r3, r2, r3
    9e3c:	e3a0200a 	mov	r2, #10
    9e40:	e1a01003 	mov	r1, r3
    9e44:	e51b0054 	ldr	r0, [fp, #-84]	; 0xffffffac
    9e48:	eb000016 	bl	9ea8 <_Z4itoajPcj>
/mnt/c/user/privateWorkspace/School/OS/SP/KIV-RTOS/Odevzdani/src/stdlib/src/stdfile.cpp:178

    return open(fname, NFile_Open_Mode::Read_Write);
    9e4c:	e24b3048 	sub	r3, fp, #72	; 0x48
    9e50:	e3a01002 	mov	r1, #2
    9e54:	e1a00003 	mov	r0, r3
    9e58:	ebffff0a 	bl	9a88 <_Z4openPKc15NFile_Open_Mode>
    9e5c:	e1a03000 	mov	r3, r0
/mnt/c/user/privateWorkspace/School/OS/SP/KIV-RTOS/Odevzdani/src/stdlib/src/stdfile.cpp:179
}
    9e60:	e1a00003 	mov	r0, r3
    9e64:	e24bd004 	sub	sp, fp, #4
    9e68:	e8bd8800 	pop	{fp, pc}
    9e6c:	0000b664 	andeq	fp, r0, r4, ror #12

00009e70 <_Z6mallocj>:
_Z6mallocj():
/mnt/c/user/privateWorkspace/School/OS/SP/KIV-RTOS/Odevzdani/src/stdlib/src/stdmem.cpp:8
/**
 * In this function we could have placed anorther second layer of memory assignment resulting in 
 * less often calls of software interrupt and memory allocation.
 */
void* malloc(uint32_t size)
{
    9e70:	e52db004 	push	{fp}		; (str fp, [sp, #-4]!)
    9e74:	e28db000 	add	fp, sp, #0
    9e78:	e24dd014 	sub	sp, sp, #20
    9e7c:	e50b0010 	str	r0, [fp, #-16]
/mnt/c/user/privateWorkspace/School/OS/SP/KIV-RTOS/Odevzdani/src/stdlib/src/stdmem.cpp:11
    uint32_t memAddress;

    asm volatile("mov r0, %0" : : "r" (size));
    9e80:	e51b3010 	ldr	r3, [fp, #-16]
    9e84:	e1a00003 	mov	r0, r3
/mnt/c/user/privateWorkspace/School/OS/SP/KIV-RTOS/Odevzdani/src/stdlib/src/stdmem.cpp:12
    asm volatile("swi 128");
    9e88:	ef000080 	svc	0x00000080
/mnt/c/user/privateWorkspace/School/OS/SP/KIV-RTOS/Odevzdani/src/stdlib/src/stdmem.cpp:13
    asm volatile("mov %0, r0" : "=r" (memAddress));
    9e8c:	e1a03000 	mov	r3, r0
    9e90:	e50b3008 	str	r3, [fp, #-8]
/mnt/c/user/privateWorkspace/School/OS/SP/KIV-RTOS/Odevzdani/src/stdlib/src/stdmem.cpp:15

    return reinterpret_cast<void*>(memAddress);
    9e94:	e51b3008 	ldr	r3, [fp, #-8]
/mnt/c/user/privateWorkspace/School/OS/SP/KIV-RTOS/Odevzdani/src/stdlib/src/stdmem.cpp:16
}
    9e98:	e1a00003 	mov	r0, r3
    9e9c:	e28bd000 	add	sp, fp, #0
    9ea0:	e49db004 	pop	{fp}		; (ldr fp, [sp], #4)
    9ea4:	e12fff1e 	bx	lr

00009ea8 <_Z4itoajPcj>:
_Z4itoajPcj():
/mnt/c/user/privateWorkspace/School/OS/SP/KIV-RTOS/Odevzdani/src/stdlib/src/stdstring.cpp:11
{
    const char CharConvArr[] = "0123456789ABCDEF";
}

void itoa(unsigned int input, char* output, unsigned int base)
{
    9ea8:	e92d4800 	push	{fp, lr}
    9eac:	e28db004 	add	fp, sp, #4
    9eb0:	e24dd020 	sub	sp, sp, #32
    9eb4:	e50b0018 	str	r0, [fp, #-24]	; 0xffffffe8
    9eb8:	e50b101c 	str	r1, [fp, #-28]	; 0xffffffe4
    9ebc:	e50b2020 	str	r2, [fp, #-32]	; 0xffffffe0
/mnt/c/user/privateWorkspace/School/OS/SP/KIV-RTOS/Odevzdani/src/stdlib/src/stdstring.cpp:12
	int i = 0;
    9ec0:	e3a03000 	mov	r3, #0
    9ec4:	e50b3008 	str	r3, [fp, #-8]
/mnt/c/user/privateWorkspace/School/OS/SP/KIV-RTOS/Odevzdani/src/stdlib/src/stdstring.cpp:14

	while (input > 0)
    9ec8:	e51b3018 	ldr	r3, [fp, #-24]	; 0xffffffe8
    9ecc:	e3530000 	cmp	r3, #0
    9ed0:	0a000014 	beq	9f28 <_Z4itoajPcj+0x80>
/mnt/c/user/privateWorkspace/School/OS/SP/KIV-RTOS/Odevzdani/src/stdlib/src/stdstring.cpp:16
	{
		output[i] = CharConvArr[input % base];
    9ed4:	e51b3018 	ldr	r3, [fp, #-24]	; 0xffffffe8
    9ed8:	e51b1020 	ldr	r1, [fp, #-32]	; 0xffffffe0
    9edc:	e1a00003 	mov	r0, r3
    9ee0:	eb0004b4 	bl	b1b8 <__aeabi_uidivmod>
    9ee4:	e1a03001 	mov	r3, r1
    9ee8:	e1a01003 	mov	r1, r3
    9eec:	e51b3008 	ldr	r3, [fp, #-8]
    9ef0:	e51b201c 	ldr	r2, [fp, #-28]	; 0xffffffe4
    9ef4:	e0823003 	add	r3, r2, r3
    9ef8:	e59f2118 	ldr	r2, [pc, #280]	; a018 <_Z4itoajPcj+0x170>
    9efc:	e7d22001 	ldrb	r2, [r2, r1]
    9f00:	e5c32000 	strb	r2, [r3]
/mnt/c/user/privateWorkspace/School/OS/SP/KIV-RTOS/Odevzdani/src/stdlib/src/stdstring.cpp:17
		input /= base;
    9f04:	e51b1020 	ldr	r1, [fp, #-32]	; 0xffffffe0
    9f08:	e51b0018 	ldr	r0, [fp, #-24]	; 0xffffffe8
    9f0c:	eb00047f 	bl	b110 <__udivsi3>
    9f10:	e1a03000 	mov	r3, r0
    9f14:	e50b3018 	str	r3, [fp, #-24]	; 0xffffffe8
/mnt/c/user/privateWorkspace/School/OS/SP/KIV-RTOS/Odevzdani/src/stdlib/src/stdstring.cpp:18
		i++;
    9f18:	e51b3008 	ldr	r3, [fp, #-8]
    9f1c:	e2833001 	add	r3, r3, #1
    9f20:	e50b3008 	str	r3, [fp, #-8]
/mnt/c/user/privateWorkspace/School/OS/SP/KIV-RTOS/Odevzdani/src/stdlib/src/stdstring.cpp:14
	while (input > 0)
    9f24:	eaffffe7 	b	9ec8 <_Z4itoajPcj+0x20>
/mnt/c/user/privateWorkspace/School/OS/SP/KIV-RTOS/Odevzdani/src/stdlib/src/stdstring.cpp:21
	}

    if (i == 0)
    9f28:	e51b3008 	ldr	r3, [fp, #-8]
    9f2c:	e3530000 	cmp	r3, #0
    9f30:	1a000007 	bne	9f54 <_Z4itoajPcj+0xac>
/mnt/c/user/privateWorkspace/School/OS/SP/KIV-RTOS/Odevzdani/src/stdlib/src/stdstring.cpp:23
    {
        output[i] = CharConvArr[0];
    9f34:	e51b3008 	ldr	r3, [fp, #-8]
    9f38:	e51b201c 	ldr	r2, [fp, #-28]	; 0xffffffe4
    9f3c:	e0823003 	add	r3, r2, r3
    9f40:	e3a02030 	mov	r2, #48	; 0x30
    9f44:	e5c32000 	strb	r2, [r3]
/mnt/c/user/privateWorkspace/School/OS/SP/KIV-RTOS/Odevzdani/src/stdlib/src/stdstring.cpp:24
        i++;
    9f48:	e51b3008 	ldr	r3, [fp, #-8]
    9f4c:	e2833001 	add	r3, r3, #1
    9f50:	e50b3008 	str	r3, [fp, #-8]
/mnt/c/user/privateWorkspace/School/OS/SP/KIV-RTOS/Odevzdani/src/stdlib/src/stdstring.cpp:27
    }

	output[i] = '\0';
    9f54:	e51b3008 	ldr	r3, [fp, #-8]
    9f58:	e51b201c 	ldr	r2, [fp, #-28]	; 0xffffffe4
    9f5c:	e0823003 	add	r3, r2, r3
    9f60:	e3a02000 	mov	r2, #0
    9f64:	e5c32000 	strb	r2, [r3]
/mnt/c/user/privateWorkspace/School/OS/SP/KIV-RTOS/Odevzdani/src/stdlib/src/stdstring.cpp:28
	i--;
    9f68:	e51b3008 	ldr	r3, [fp, #-8]
    9f6c:	e2433001 	sub	r3, r3, #1
    9f70:	e50b3008 	str	r3, [fp, #-8]
/mnt/c/user/privateWorkspace/School/OS/SP/KIV-RTOS/Odevzdani/src/stdlib/src/stdstring.cpp:30

	for (int j = 0; j <= i/2; j++)
    9f74:	e3a03000 	mov	r3, #0
    9f78:	e50b300c 	str	r3, [fp, #-12]
/mnt/c/user/privateWorkspace/School/OS/SP/KIV-RTOS/Odevzdani/src/stdlib/src/stdstring.cpp:30 (discriminator 3)
    9f7c:	e51b3008 	ldr	r3, [fp, #-8]
    9f80:	e1a02fa3 	lsr	r2, r3, #31
    9f84:	e0823003 	add	r3, r2, r3
    9f88:	e1a030c3 	asr	r3, r3, #1
    9f8c:	e1a02003 	mov	r2, r3
    9f90:	e51b300c 	ldr	r3, [fp, #-12]
    9f94:	e1530002 	cmp	r3, r2
    9f98:	ca00001b 	bgt	a00c <_Z4itoajPcj+0x164>
/mnt/c/user/privateWorkspace/School/OS/SP/KIV-RTOS/Odevzdani/src/stdlib/src/stdstring.cpp:32 (discriminator 2)
	{
		char c = output[i - j];
    9f9c:	e51b2008 	ldr	r2, [fp, #-8]
    9fa0:	e51b300c 	ldr	r3, [fp, #-12]
    9fa4:	e0423003 	sub	r3, r2, r3
    9fa8:	e1a02003 	mov	r2, r3
    9fac:	e51b301c 	ldr	r3, [fp, #-28]	; 0xffffffe4
    9fb0:	e0833002 	add	r3, r3, r2
    9fb4:	e5d33000 	ldrb	r3, [r3]
    9fb8:	e54b300d 	strb	r3, [fp, #-13]
/mnt/c/user/privateWorkspace/School/OS/SP/KIV-RTOS/Odevzdani/src/stdlib/src/stdstring.cpp:33 (discriminator 2)
		output[i - j] = output[j];
    9fbc:	e51b300c 	ldr	r3, [fp, #-12]
    9fc0:	e51b201c 	ldr	r2, [fp, #-28]	; 0xffffffe4
    9fc4:	e0822003 	add	r2, r2, r3
    9fc8:	e51b1008 	ldr	r1, [fp, #-8]
    9fcc:	e51b300c 	ldr	r3, [fp, #-12]
    9fd0:	e0413003 	sub	r3, r1, r3
    9fd4:	e1a01003 	mov	r1, r3
    9fd8:	e51b301c 	ldr	r3, [fp, #-28]	; 0xffffffe4
    9fdc:	e0833001 	add	r3, r3, r1
    9fe0:	e5d22000 	ldrb	r2, [r2]
    9fe4:	e5c32000 	strb	r2, [r3]
/mnt/c/user/privateWorkspace/School/OS/SP/KIV-RTOS/Odevzdani/src/stdlib/src/stdstring.cpp:34 (discriminator 2)
		output[j] = c;
    9fe8:	e51b300c 	ldr	r3, [fp, #-12]
    9fec:	e51b201c 	ldr	r2, [fp, #-28]	; 0xffffffe4
    9ff0:	e0823003 	add	r3, r2, r3
    9ff4:	e55b200d 	ldrb	r2, [fp, #-13]
    9ff8:	e5c32000 	strb	r2, [r3]
/mnt/c/user/privateWorkspace/School/OS/SP/KIV-RTOS/Odevzdani/src/stdlib/src/stdstring.cpp:30 (discriminator 2)
	for (int j = 0; j <= i/2; j++)
    9ffc:	e51b300c 	ldr	r3, [fp, #-12]
    a000:	e2833001 	add	r3, r3, #1
    a004:	e50b300c 	str	r3, [fp, #-12]
    a008:	eaffffdb 	b	9f7c <_Z4itoajPcj+0xd4>
/mnt/c/user/privateWorkspace/School/OS/SP/KIV-RTOS/Odevzdani/src/stdlib/src/stdstring.cpp:36
	}
}
    a00c:	e320f000 	nop	{0}
    a010:	e24bd004 	sub	sp, fp, #4
    a014:	e8bd8800 	pop	{fp, pc}
    a018:	0000b670 	andeq	fp, r0, r0, ror r6

0000a01c <_Z4atoiPKc>:
_Z4atoiPKc():
/mnt/c/user/privateWorkspace/School/OS/SP/KIV-RTOS/Odevzdani/src/stdlib/src/stdstring.cpp:39

int atoi(const char* input)
{
    a01c:	e92d4800 	push	{fp, lr}
    a020:	e28db004 	add	fp, sp, #4
    a024:	e24dd010 	sub	sp, sp, #16
    a028:	e50b0010 	str	r0, [fp, #-16]
/mnt/c/user/privateWorkspace/School/OS/SP/KIV-RTOS/Odevzdani/src/stdlib/src/stdstring.cpp:40
	int output = 0;
    a02c:	e3a03000 	mov	r3, #0
    a030:	e50b3008 	str	r3, [fp, #-8]
/mnt/c/user/privateWorkspace/School/OS/SP/KIV-RTOS/Odevzdani/src/stdlib/src/stdstring.cpp:42

  if (isnan(input, false)) {
    a034:	e3a01000 	mov	r1, #0
    a038:	e51b0010 	ldr	r0, [fp, #-16]
    a03c:	eb000055 	bl	a198 <_Z5isnanPKcb>
    a040:	e1a03000 	mov	r3, r0
    a044:	e3530000 	cmp	r3, #0
    a048:	0a000001 	beq	a054 <_Z4atoiPKc+0x38>
/mnt/c/user/privateWorkspace/School/OS/SP/KIV-RTOS/Odevzdani/src/stdlib/src/stdstring.cpp:43
    return 0;
    a04c:	e3a03000 	mov	r3, #0
    a050:	ea00001c 	b	a0c8 <_Z4atoiPKc+0xac>
/mnt/c/user/privateWorkspace/School/OS/SP/KIV-RTOS/Odevzdani/src/stdlib/src/stdstring.cpp:46
  }

	while (*input != '\0')
    a054:	e51b3010 	ldr	r3, [fp, #-16]
    a058:	e5d33000 	ldrb	r3, [r3]
    a05c:	e3530000 	cmp	r3, #0
    a060:	0a000017 	beq	a0c4 <_Z4atoiPKc+0xa8>
/mnt/c/user/privateWorkspace/School/OS/SP/KIV-RTOS/Odevzdani/src/stdlib/src/stdstring.cpp:48
	{
		output *= 10;
    a064:	e51b2008 	ldr	r2, [fp, #-8]
    a068:	e1a03002 	mov	r3, r2
    a06c:	e1a03103 	lsl	r3, r3, #2
    a070:	e0833002 	add	r3, r3, r2
    a074:	e1a03083 	lsl	r3, r3, #1
    a078:	e50b3008 	str	r3, [fp, #-8]
/mnt/c/user/privateWorkspace/School/OS/SP/KIV-RTOS/Odevzdani/src/stdlib/src/stdstring.cpp:49
		if (*input > '9' || *input < '0')
    a07c:	e51b3010 	ldr	r3, [fp, #-16]
    a080:	e5d33000 	ldrb	r3, [r3]
    a084:	e3530039 	cmp	r3, #57	; 0x39
    a088:	8a00000d 	bhi	a0c4 <_Z4atoiPKc+0xa8>
/mnt/c/user/privateWorkspace/School/OS/SP/KIV-RTOS/Odevzdani/src/stdlib/src/stdstring.cpp:49 (discriminator 1)
    a08c:	e51b3010 	ldr	r3, [fp, #-16]
    a090:	e5d33000 	ldrb	r3, [r3]
    a094:	e353002f 	cmp	r3, #47	; 0x2f
    a098:	9a000009 	bls	a0c4 <_Z4atoiPKc+0xa8>
/mnt/c/user/privateWorkspace/School/OS/SP/KIV-RTOS/Odevzdani/src/stdlib/src/stdstring.cpp:52
			break;

		output += *input - '0';
    a09c:	e51b3010 	ldr	r3, [fp, #-16]
    a0a0:	e5d33000 	ldrb	r3, [r3]
    a0a4:	e2433030 	sub	r3, r3, #48	; 0x30
    a0a8:	e51b2008 	ldr	r2, [fp, #-8]
    a0ac:	e0823003 	add	r3, r2, r3
    a0b0:	e50b3008 	str	r3, [fp, #-8]
/mnt/c/user/privateWorkspace/School/OS/SP/KIV-RTOS/Odevzdani/src/stdlib/src/stdstring.cpp:54

		input++;
    a0b4:	e51b3010 	ldr	r3, [fp, #-16]
    a0b8:	e2833001 	add	r3, r3, #1
    a0bc:	e50b3010 	str	r3, [fp, #-16]
/mnt/c/user/privateWorkspace/School/OS/SP/KIV-RTOS/Odevzdani/src/stdlib/src/stdstring.cpp:46
	while (*input != '\0')
    a0c0:	eaffffe3 	b	a054 <_Z4atoiPKc+0x38>
/mnt/c/user/privateWorkspace/School/OS/SP/KIV-RTOS/Odevzdani/src/stdlib/src/stdstring.cpp:57
	}

	return output;
    a0c4:	e51b3008 	ldr	r3, [fp, #-8]
/mnt/c/user/privateWorkspace/School/OS/SP/KIV-RTOS/Odevzdani/src/stdlib/src/stdstring.cpp:58
}
    a0c8:	e1a00003 	mov	r0, r3
    a0cc:	e24bd004 	sub	sp, fp, #4
    a0d0:	e8bd8800 	pop	{fp, pc}

0000a0d4 <_Z9normalizePf>:
_Z9normalizePf():
/mnt/c/user/privateWorkspace/School/OS/SP/KIV-RTOS/Odevzdani/src/stdlib/src/stdstring.cpp:60

int normalize(float *val) {
    a0d4:	e52db004 	push	{fp}		; (str fp, [sp, #-4]!)
    a0d8:	e28db000 	add	fp, sp, #0
    a0dc:	e24dd014 	sub	sp, sp, #20
    a0e0:	e50b0010 	str	r0, [fp, #-16]
/mnt/c/user/privateWorkspace/School/OS/SP/KIV-RTOS/Odevzdani/src/stdlib/src/stdstring.cpp:61
    int exponent = 0;
    a0e4:	e3a03000 	mov	r3, #0
    a0e8:	e50b3008 	str	r3, [fp, #-8]
/mnt/c/user/privateWorkspace/School/OS/SP/KIV-RTOS/Odevzdani/src/stdlib/src/stdstring.cpp:62
    float value = *val;
    a0ec:	e51b3010 	ldr	r3, [fp, #-16]
    a0f0:	e5933000 	ldr	r3, [r3]
    a0f4:	e50b300c 	str	r3, [fp, #-12]
/mnt/c/user/privateWorkspace/School/OS/SP/KIV-RTOS/Odevzdani/src/stdlib/src/stdstring.cpp:64

    while (value >= 1.0) {
    a0f8:	ed5b7a03 	vldr	s15, [fp, #-12]
    a0fc:	ed9f7a23 	vldr	s14, [pc, #140]	; a190 <_Z9normalizePf+0xbc>
    a100:	eef47ac7 	vcmpe.f32	s15, s14
    a104:	eef1fa10 	vmrs	APSR_nzcv, fpscr
    a108:	aa000000 	bge	a110 <_Z9normalizePf+0x3c>
    a10c:	ea000007 	b	a130 <_Z9normalizePf+0x5c>
/mnt/c/user/privateWorkspace/School/OS/SP/KIV-RTOS/Odevzdani/src/stdlib/src/stdstring.cpp:65
        value = value / 10.0;
    a110:	ed1b7a03 	vldr	s14, [fp, #-12]
    a114:	eddf6a1e 	vldr	s13, [pc, #120]	; a194 <_Z9normalizePf+0xc0>
    a118:	eec77a26 	vdiv.f32	s15, s14, s13
    a11c:	ed4b7a03 	vstr	s15, [fp, #-12]
/mnt/c/user/privateWorkspace/School/OS/SP/KIV-RTOS/Odevzdani/src/stdlib/src/stdstring.cpp:66
        ++exponent;
    a120:	e51b3008 	ldr	r3, [fp, #-8]
    a124:	e2833001 	add	r3, r3, #1
    a128:	e50b3008 	str	r3, [fp, #-8]
/mnt/c/user/privateWorkspace/School/OS/SP/KIV-RTOS/Odevzdani/src/stdlib/src/stdstring.cpp:64
    while (value >= 1.0) {
    a12c:	eafffff1 	b	a0f8 <_Z9normalizePf+0x24>
/mnt/c/user/privateWorkspace/School/OS/SP/KIV-RTOS/Odevzdani/src/stdlib/src/stdstring.cpp:69
    }

    while (value < 0.1) {
    a130:	ed5b7a03 	vldr	s15, [fp, #-12]
    a134:	eeb77ae7 	vcvt.f64.f32	d7, s15
    a138:	ed9f6b12 	vldr	d6, [pc, #72]	; a188 <_Z9normalizePf+0xb4>
    a13c:	eeb47bc6 	vcmpe.f64	d7, d6
    a140:	eef1fa10 	vmrs	APSR_nzcv, fpscr
    a144:	5a000007 	bpl	a168 <_Z9normalizePf+0x94>
/mnt/c/user/privateWorkspace/School/OS/SP/KIV-RTOS/Odevzdani/src/stdlib/src/stdstring.cpp:70
        value = value * 10.0;
    a148:	ed5b7a03 	vldr	s15, [fp, #-12]
    a14c:	ed9f7a10 	vldr	s14, [pc, #64]	; a194 <_Z9normalizePf+0xc0>
    a150:	ee677a87 	vmul.f32	s15, s15, s14
    a154:	ed4b7a03 	vstr	s15, [fp, #-12]
/mnt/c/user/privateWorkspace/School/OS/SP/KIV-RTOS/Odevzdani/src/stdlib/src/stdstring.cpp:71
        --exponent;
    a158:	e51b3008 	ldr	r3, [fp, #-8]
    a15c:	e2433001 	sub	r3, r3, #1
    a160:	e50b3008 	str	r3, [fp, #-8]
/mnt/c/user/privateWorkspace/School/OS/SP/KIV-RTOS/Odevzdani/src/stdlib/src/stdstring.cpp:69
    while (value < 0.1) {
    a164:	eafffff1 	b	a130 <_Z9normalizePf+0x5c>
/mnt/c/user/privateWorkspace/School/OS/SP/KIV-RTOS/Odevzdani/src/stdlib/src/stdstring.cpp:73
    }
    *val = value;
    a168:	e51b3010 	ldr	r3, [fp, #-16]
    a16c:	e51b200c 	ldr	r2, [fp, #-12]
    a170:	e5832000 	str	r2, [r3]
/mnt/c/user/privateWorkspace/School/OS/SP/KIV-RTOS/Odevzdani/src/stdlib/src/stdstring.cpp:74
    return exponent;
    a174:	e51b3008 	ldr	r3, [fp, #-8]
/mnt/c/user/privateWorkspace/School/OS/SP/KIV-RTOS/Odevzdani/src/stdlib/src/stdstring.cpp:75
}
    a178:	e1a00003 	mov	r0, r3
    a17c:	e28bd000 	add	sp, fp, #0
    a180:	e49db004 	pop	{fp}		; (ldr fp, [sp], #4)
    a184:	e12fff1e 	bx	lr
    a188:	9999999a 	ldmibls	r9, {r1, r3, r4, r7, r8, fp, ip, pc}
    a18c:	3fb99999 	svccc	0x00b99999
    a190:	3f800000 	svccc	0x00800000
    a194:	41200000 			; <UNDEFINED> instruction: 0x41200000

0000a198 <_Z5isnanPKcb>:
_Z5isnanPKcb():
/mnt/c/user/privateWorkspace/School/OS/SP/KIV-RTOS/Odevzdani/src/stdlib/src/stdstring.cpp:78

bool isnan(const char *s, bool isFloat) 
{
    a198:	e92d4800 	push	{fp, lr}
    a19c:	e28db004 	add	fp, sp, #4
    a1a0:	e24dd018 	sub	sp, sp, #24
    a1a4:	e50b0018 	str	r0, [fp, #-24]	; 0xffffffe8
    a1a8:	e1a03001 	mov	r3, r1
    a1ac:	e54b3019 	strb	r3, [fp, #-25]	; 0xffffffe7
/mnt/c/user/privateWorkspace/School/OS/SP/KIV-RTOS/Odevzdani/src/stdlib/src/stdstring.cpp:79
  int length = strlen(s);
    a1b0:	e51b0018 	ldr	r0, [fp, #-24]	; 0xffffffe8
    a1b4:	eb0001fa 	bl	a9a4 <_Z6strlenPKc>
    a1b8:	e50b000c 	str	r0, [fp, #-12]
/mnt/c/user/privateWorkspace/School/OS/SP/KIV-RTOS/Odevzdani/src/stdlib/src/stdstring.cpp:80
  if (length == 0) {
    a1bc:	e51b300c 	ldr	r3, [fp, #-12]
    a1c0:	e3530000 	cmp	r3, #0
    a1c4:	1a000001 	bne	a1d0 <_Z5isnanPKcb+0x38>
/mnt/c/user/privateWorkspace/School/OS/SP/KIV-RTOS/Odevzdani/src/stdlib/src/stdstring.cpp:81
    return true;
    a1c8:	e3a03001 	mov	r3, #1
    a1cc:	ea000025 	b	a268 <_Z5isnanPKcb+0xd0>
/mnt/c/user/privateWorkspace/School/OS/SP/KIV-RTOS/Odevzdani/src/stdlib/src/stdstring.cpp:84
  }

	for (int i = 0; i < strlen(s); i++) {
    a1d0:	e3a03000 	mov	r3, #0
    a1d4:	e50b3008 	str	r3, [fp, #-8]
/mnt/c/user/privateWorkspace/School/OS/SP/KIV-RTOS/Odevzdani/src/stdlib/src/stdstring.cpp:84 (discriminator 1)
    a1d8:	e51b0018 	ldr	r0, [fp, #-24]	; 0xffffffe8
    a1dc:	eb0001f0 	bl	a9a4 <_Z6strlenPKc>
    a1e0:	e1a02000 	mov	r2, r0
    a1e4:	e51b3008 	ldr	r3, [fp, #-8]
    a1e8:	e1530002 	cmp	r3, r2
    a1ec:	b3a03001 	movlt	r3, #1
    a1f0:	a3a03000 	movge	r3, #0
    a1f4:	e6ef3073 	uxtb	r3, r3
    a1f8:	e3530000 	cmp	r3, #0
    a1fc:	0a000018 	beq	a264 <_Z5isnanPKcb+0xcc>
/mnt/c/user/privateWorkspace/School/OS/SP/KIV-RTOS/Odevzdani/src/stdlib/src/stdstring.cpp:85
		char c = s[i];
    a200:	e51b3008 	ldr	r3, [fp, #-8]
    a204:	e51b2018 	ldr	r2, [fp, #-24]	; 0xffffffe8
    a208:	e0823003 	add	r3, r2, r3
    a20c:	e5d33000 	ldrb	r3, [r3]
    a210:	e54b300d 	strb	r3, [fp, #-13]
/mnt/c/user/privateWorkspace/School/OS/SP/KIV-RTOS/Odevzdani/src/stdlib/src/stdstring.cpp:86
		if ((c != 46 || !isFloat) && (c < 48 || c > 57 )) { //Pokud neni tecka (Kdyz kontrolujeme jen float cisla) a zaroven je mimo rozsah cislic, vyhod ze neni number
    a214:	e55b300d 	ldrb	r3, [fp, #-13]
    a218:	e353002e 	cmp	r3, #46	; 0x2e
    a21c:	1a000004 	bne	a234 <_Z5isnanPKcb+0x9c>
/mnt/c/user/privateWorkspace/School/OS/SP/KIV-RTOS/Odevzdani/src/stdlib/src/stdstring.cpp:86 (discriminator 2)
    a220:	e55b3019 	ldrb	r3, [fp, #-25]	; 0xffffffe7
    a224:	e2233001 	eor	r3, r3, #1
    a228:	e6ef3073 	uxtb	r3, r3
    a22c:	e3530000 	cmp	r3, #0
    a230:	0a000007 	beq	a254 <_Z5isnanPKcb+0xbc>
/mnt/c/user/privateWorkspace/School/OS/SP/KIV-RTOS/Odevzdani/src/stdlib/src/stdstring.cpp:86 (discriminator 3)
    a234:	e55b300d 	ldrb	r3, [fp, #-13]
    a238:	e353002f 	cmp	r3, #47	; 0x2f
    a23c:	9a000002 	bls	a24c <_Z5isnanPKcb+0xb4>
/mnt/c/user/privateWorkspace/School/OS/SP/KIV-RTOS/Odevzdani/src/stdlib/src/stdstring.cpp:86 (discriminator 4)
    a240:	e55b300d 	ldrb	r3, [fp, #-13]
    a244:	e3530039 	cmp	r3, #57	; 0x39
    a248:	9a000001 	bls	a254 <_Z5isnanPKcb+0xbc>
/mnt/c/user/privateWorkspace/School/OS/SP/KIV-RTOS/Odevzdani/src/stdlib/src/stdstring.cpp:87
			return true;
    a24c:	e3a03001 	mov	r3, #1
    a250:	ea000004 	b	a268 <_Z5isnanPKcb+0xd0>
/mnt/c/user/privateWorkspace/School/OS/SP/KIV-RTOS/Odevzdani/src/stdlib/src/stdstring.cpp:84 (discriminator 2)
	for (int i = 0; i < strlen(s); i++) {
    a254:	e51b3008 	ldr	r3, [fp, #-8]
    a258:	e2833001 	add	r3, r3, #1
    a25c:	e50b3008 	str	r3, [fp, #-8]
    a260:	eaffffdc 	b	a1d8 <_Z5isnanPKcb+0x40>
/mnt/c/user/privateWorkspace/School/OS/SP/KIV-RTOS/Odevzdani/src/stdlib/src/stdstring.cpp:91
		}
	}

	return false;
    a264:	e3a03000 	mov	r3, #0
/mnt/c/user/privateWorkspace/School/OS/SP/KIV-RTOS/Odevzdani/src/stdlib/src/stdstring.cpp:92
}
    a268:	e1a00003 	mov	r0, r3
    a26c:	e24bd004 	sub	sp, fp, #4
    a270:	e8bd8800 	pop	{fp, pc}

0000a274 <_Z4atofPKc>:
_Z4atofPKc():
/mnt/c/user/privateWorkspace/School/OS/SP/KIV-RTOS/Odevzdani/src/stdlib/src/stdstring.cpp:95

float atof(const char *s)
{
    a274:	e52db004 	push	{fp}		; (str fp, [sp, #-4]!)
    a278:	e28db000 	add	fp, sp, #0
    a27c:	e24dd024 	sub	sp, sp, #36	; 0x24
    a280:	e50b0020 	str	r0, [fp, #-32]	; 0xffffffe0
/mnt/c/user/privateWorkspace/School/OS/SP/KIV-RTOS/Odevzdani/src/stdlib/src/stdstring.cpp:100
  // This function stolen from either Rolf Neugebauer or Andrew Tolmach. 
  // Probably Rolf.
  // -----------------------------------
  // I stole it from https://github.com/GaloisInc/minlibc/blob/master/atof.c
  float a = 0.0;
    a284:	e3a03000 	mov	r3, #0
    a288:	e50b3008 	str	r3, [fp, #-8]
/mnt/c/user/privateWorkspace/School/OS/SP/KIV-RTOS/Odevzdani/src/stdlib/src/stdstring.cpp:101
  int e = 0;
    a28c:	e3a03000 	mov	r3, #0
    a290:	e50b300c 	str	r3, [fp, #-12]
/mnt/c/user/privateWorkspace/School/OS/SP/KIV-RTOS/Odevzdani/src/stdlib/src/stdstring.cpp:103
  int c;
  while ((c = *s++) != '\0' && isdigit(c)) {
    a294:	e51b3020 	ldr	r3, [fp, #-32]	; 0xffffffe0
    a298:	e2832001 	add	r2, r3, #1
    a29c:	e50b2020 	str	r2, [fp, #-32]	; 0xffffffe0
    a2a0:	e5d33000 	ldrb	r3, [r3]
    a2a4:	e50b3010 	str	r3, [fp, #-16]
    a2a8:	e51b3010 	ldr	r3, [fp, #-16]
    a2ac:	e3530000 	cmp	r3, #0
    a2b0:	0a000007 	beq	a2d4 <_Z4atofPKc+0x60>
/mnt/c/user/privateWorkspace/School/OS/SP/KIV-RTOS/Odevzdani/src/stdlib/src/stdstring.cpp:103 (discriminator 1)
    a2b4:	e51b3010 	ldr	r3, [fp, #-16]
    a2b8:	e353002f 	cmp	r3, #47	; 0x2f
    a2bc:	da000004 	ble	a2d4 <_Z4atofPKc+0x60>
/mnt/c/user/privateWorkspace/School/OS/SP/KIV-RTOS/Odevzdani/src/stdlib/src/stdstring.cpp:103 (discriminator 3)
    a2c0:	e51b3010 	ldr	r3, [fp, #-16]
    a2c4:	e3530039 	cmp	r3, #57	; 0x39
    a2c8:	ca000001 	bgt	a2d4 <_Z4atofPKc+0x60>
/mnt/c/user/privateWorkspace/School/OS/SP/KIV-RTOS/Odevzdani/src/stdlib/src/stdstring.cpp:103 (discriminator 5)
    a2cc:	e3a03001 	mov	r3, #1
    a2d0:	ea000000 	b	a2d8 <_Z4atofPKc+0x64>
/mnt/c/user/privateWorkspace/School/OS/SP/KIV-RTOS/Odevzdani/src/stdlib/src/stdstring.cpp:103 (discriminator 6)
    a2d4:	e3a03000 	mov	r3, #0
/mnt/c/user/privateWorkspace/School/OS/SP/KIV-RTOS/Odevzdani/src/stdlib/src/stdstring.cpp:103 (discriminator 8)
    a2d8:	e3530000 	cmp	r3, #0
    a2dc:	0a00000b 	beq	a310 <_Z4atofPKc+0x9c>
/mnt/c/user/privateWorkspace/School/OS/SP/KIV-RTOS/Odevzdani/src/stdlib/src/stdstring.cpp:104
    a = a*10.0 + (c - '0');
    a2e0:	ed5b7a02 	vldr	s15, [fp, #-8]
    a2e4:	eeb77ae7 	vcvt.f64.f32	d7, s15
    a2e8:	ed9f6b8a 	vldr	d6, [pc, #552]	; a518 <_Z4atofPKc+0x2a4>
    a2ec:	ee276b06 	vmul.f64	d6, d7, d6
    a2f0:	e51b3010 	ldr	r3, [fp, #-16]
    a2f4:	e2433030 	sub	r3, r3, #48	; 0x30
    a2f8:	ee073a90 	vmov	s15, r3
    a2fc:	eeb87be7 	vcvt.f64.s32	d7, s15
    a300:	ee367b07 	vadd.f64	d7, d6, d7
    a304:	eef77bc7 	vcvt.f32.f64	s15, d7
    a308:	ed4b7a02 	vstr	s15, [fp, #-8]
/mnt/c/user/privateWorkspace/School/OS/SP/KIV-RTOS/Odevzdani/src/stdlib/src/stdstring.cpp:103
  while ((c = *s++) != '\0' && isdigit(c)) {
    a30c:	eaffffe0 	b	a294 <_Z4atofPKc+0x20>
/mnt/c/user/privateWorkspace/School/OS/SP/KIV-RTOS/Odevzdani/src/stdlib/src/stdstring.cpp:106
  }
  if (c == '.') {
    a310:	e51b3010 	ldr	r3, [fp, #-16]
    a314:	e353002e 	cmp	r3, #46	; 0x2e
    a318:	1a000021 	bne	a3a4 <_Z4atofPKc+0x130>
/mnt/c/user/privateWorkspace/School/OS/SP/KIV-RTOS/Odevzdani/src/stdlib/src/stdstring.cpp:107
    while ((c = *s++) != '\0' && isdigit(c)) {
    a31c:	e51b3020 	ldr	r3, [fp, #-32]	; 0xffffffe0
    a320:	e2832001 	add	r2, r3, #1
    a324:	e50b2020 	str	r2, [fp, #-32]	; 0xffffffe0
    a328:	e5d33000 	ldrb	r3, [r3]
    a32c:	e50b3010 	str	r3, [fp, #-16]
    a330:	e51b3010 	ldr	r3, [fp, #-16]
    a334:	e3530000 	cmp	r3, #0
    a338:	0a000007 	beq	a35c <_Z4atofPKc+0xe8>
/mnt/c/user/privateWorkspace/School/OS/SP/KIV-RTOS/Odevzdani/src/stdlib/src/stdstring.cpp:107 (discriminator 1)
    a33c:	e51b3010 	ldr	r3, [fp, #-16]
    a340:	e353002f 	cmp	r3, #47	; 0x2f
    a344:	da000004 	ble	a35c <_Z4atofPKc+0xe8>
/mnt/c/user/privateWorkspace/School/OS/SP/KIV-RTOS/Odevzdani/src/stdlib/src/stdstring.cpp:107 (discriminator 3)
    a348:	e51b3010 	ldr	r3, [fp, #-16]
    a34c:	e3530039 	cmp	r3, #57	; 0x39
    a350:	ca000001 	bgt	a35c <_Z4atofPKc+0xe8>
/mnt/c/user/privateWorkspace/School/OS/SP/KIV-RTOS/Odevzdani/src/stdlib/src/stdstring.cpp:107 (discriminator 5)
    a354:	e3a03001 	mov	r3, #1
    a358:	ea000000 	b	a360 <_Z4atofPKc+0xec>
/mnt/c/user/privateWorkspace/School/OS/SP/KIV-RTOS/Odevzdani/src/stdlib/src/stdstring.cpp:107 (discriminator 6)
    a35c:	e3a03000 	mov	r3, #0
/mnt/c/user/privateWorkspace/School/OS/SP/KIV-RTOS/Odevzdani/src/stdlib/src/stdstring.cpp:107 (discriminator 8)
    a360:	e3530000 	cmp	r3, #0
    a364:	0a00000e 	beq	a3a4 <_Z4atofPKc+0x130>
/mnt/c/user/privateWorkspace/School/OS/SP/KIV-RTOS/Odevzdani/src/stdlib/src/stdstring.cpp:108
      a = a*10.0 + (c - '0');
    a368:	ed5b7a02 	vldr	s15, [fp, #-8]
    a36c:	eeb77ae7 	vcvt.f64.f32	d7, s15
    a370:	ed9f6b68 	vldr	d6, [pc, #416]	; a518 <_Z4atofPKc+0x2a4>
    a374:	ee276b06 	vmul.f64	d6, d7, d6
    a378:	e51b3010 	ldr	r3, [fp, #-16]
    a37c:	e2433030 	sub	r3, r3, #48	; 0x30
    a380:	ee073a90 	vmov	s15, r3
    a384:	eeb87be7 	vcvt.f64.s32	d7, s15
    a388:	ee367b07 	vadd.f64	d7, d6, d7
    a38c:	eef77bc7 	vcvt.f32.f64	s15, d7
    a390:	ed4b7a02 	vstr	s15, [fp, #-8]
/mnt/c/user/privateWorkspace/School/OS/SP/KIV-RTOS/Odevzdani/src/stdlib/src/stdstring.cpp:109
      e = e-1;
    a394:	e51b300c 	ldr	r3, [fp, #-12]
    a398:	e2433001 	sub	r3, r3, #1
    a39c:	e50b300c 	str	r3, [fp, #-12]
/mnt/c/user/privateWorkspace/School/OS/SP/KIV-RTOS/Odevzdani/src/stdlib/src/stdstring.cpp:107
    while ((c = *s++) != '\0' && isdigit(c)) {
    a3a0:	eaffffdd 	b	a31c <_Z4atofPKc+0xa8>
/mnt/c/user/privateWorkspace/School/OS/SP/KIV-RTOS/Odevzdani/src/stdlib/src/stdstring.cpp:112
    }
  }
  if (c == 'e' || c == 'E') {
    a3a4:	e51b3010 	ldr	r3, [fp, #-16]
    a3a8:	e3530065 	cmp	r3, #101	; 0x65
    a3ac:	0a000002 	beq	a3bc <_Z4atofPKc+0x148>
/mnt/c/user/privateWorkspace/School/OS/SP/KIV-RTOS/Odevzdani/src/stdlib/src/stdstring.cpp:112 (discriminator 1)
    a3b0:	e51b3010 	ldr	r3, [fp, #-16]
    a3b4:	e3530045 	cmp	r3, #69	; 0x45
    a3b8:	1a000037 	bne	a49c <_Z4atofPKc+0x228>
/mnt/c/user/privateWorkspace/School/OS/SP/KIV-RTOS/Odevzdani/src/stdlib/src/stdstring.cpp:113
    int sign = 1;
    a3bc:	e3a03001 	mov	r3, #1
    a3c0:	e50b3014 	str	r3, [fp, #-20]	; 0xffffffec
/mnt/c/user/privateWorkspace/School/OS/SP/KIV-RTOS/Odevzdani/src/stdlib/src/stdstring.cpp:114
    int i = 0;
    a3c4:	e3a03000 	mov	r3, #0
    a3c8:	e50b3018 	str	r3, [fp, #-24]	; 0xffffffe8
/mnt/c/user/privateWorkspace/School/OS/SP/KIV-RTOS/Odevzdani/src/stdlib/src/stdstring.cpp:115
    c = *s++;
    a3cc:	e51b3020 	ldr	r3, [fp, #-32]	; 0xffffffe0
    a3d0:	e2832001 	add	r2, r3, #1
    a3d4:	e50b2020 	str	r2, [fp, #-32]	; 0xffffffe0
    a3d8:	e5d33000 	ldrb	r3, [r3]
    a3dc:	e50b3010 	str	r3, [fp, #-16]
/mnt/c/user/privateWorkspace/School/OS/SP/KIV-RTOS/Odevzdani/src/stdlib/src/stdstring.cpp:116
    if (c == '+')
    a3e0:	e51b3010 	ldr	r3, [fp, #-16]
    a3e4:	e353002b 	cmp	r3, #43	; 0x2b
    a3e8:	1a000005 	bne	a404 <_Z4atofPKc+0x190>
/mnt/c/user/privateWorkspace/School/OS/SP/KIV-RTOS/Odevzdani/src/stdlib/src/stdstring.cpp:117
      c = *s++;
    a3ec:	e51b3020 	ldr	r3, [fp, #-32]	; 0xffffffe0
    a3f0:	e2832001 	add	r2, r3, #1
    a3f4:	e50b2020 	str	r2, [fp, #-32]	; 0xffffffe0
    a3f8:	e5d33000 	ldrb	r3, [r3]
    a3fc:	e50b3010 	str	r3, [fp, #-16]
    a400:	ea000009 	b	a42c <_Z4atofPKc+0x1b8>
/mnt/c/user/privateWorkspace/School/OS/SP/KIV-RTOS/Odevzdani/src/stdlib/src/stdstring.cpp:118
    else if (c == '-') {
    a404:	e51b3010 	ldr	r3, [fp, #-16]
    a408:	e353002d 	cmp	r3, #45	; 0x2d
    a40c:	1a000006 	bne	a42c <_Z4atofPKc+0x1b8>
/mnt/c/user/privateWorkspace/School/OS/SP/KIV-RTOS/Odevzdani/src/stdlib/src/stdstring.cpp:119
      c = *s++;
    a410:	e51b3020 	ldr	r3, [fp, #-32]	; 0xffffffe0
    a414:	e2832001 	add	r2, r3, #1
    a418:	e50b2020 	str	r2, [fp, #-32]	; 0xffffffe0
    a41c:	e5d33000 	ldrb	r3, [r3]
    a420:	e50b3010 	str	r3, [fp, #-16]
/mnt/c/user/privateWorkspace/School/OS/SP/KIV-RTOS/Odevzdani/src/stdlib/src/stdstring.cpp:120
      sign = -1;
    a424:	e3e03000 	mvn	r3, #0
    a428:	e50b3014 	str	r3, [fp, #-20]	; 0xffffffec
/mnt/c/user/privateWorkspace/School/OS/SP/KIV-RTOS/Odevzdani/src/stdlib/src/stdstring.cpp:122
    }
    while (isdigit(c)) {
    a42c:	e51b3010 	ldr	r3, [fp, #-16]
    a430:	e353002f 	cmp	r3, #47	; 0x2f
    a434:	da000012 	ble	a484 <_Z4atofPKc+0x210>
/mnt/c/user/privateWorkspace/School/OS/SP/KIV-RTOS/Odevzdani/src/stdlib/src/stdstring.cpp:122 (discriminator 1)
    a438:	e51b3010 	ldr	r3, [fp, #-16]
    a43c:	e3530039 	cmp	r3, #57	; 0x39
    a440:	ca00000f 	bgt	a484 <_Z4atofPKc+0x210>
/mnt/c/user/privateWorkspace/School/OS/SP/KIV-RTOS/Odevzdani/src/stdlib/src/stdstring.cpp:123
      i = i*10 + (c - '0');
    a444:	e51b2018 	ldr	r2, [fp, #-24]	; 0xffffffe8
    a448:	e1a03002 	mov	r3, r2
    a44c:	e1a03103 	lsl	r3, r3, #2
    a450:	e0833002 	add	r3, r3, r2
    a454:	e1a03083 	lsl	r3, r3, #1
    a458:	e1a02003 	mov	r2, r3
    a45c:	e51b3010 	ldr	r3, [fp, #-16]
    a460:	e2433030 	sub	r3, r3, #48	; 0x30
    a464:	e0823003 	add	r3, r2, r3
    a468:	e50b3018 	str	r3, [fp, #-24]	; 0xffffffe8
/mnt/c/user/privateWorkspace/School/OS/SP/KIV-RTOS/Odevzdani/src/stdlib/src/stdstring.cpp:124
      c = *s++;
    a46c:	e51b3020 	ldr	r3, [fp, #-32]	; 0xffffffe0
    a470:	e2832001 	add	r2, r3, #1
    a474:	e50b2020 	str	r2, [fp, #-32]	; 0xffffffe0
    a478:	e5d33000 	ldrb	r3, [r3]
    a47c:	e50b3010 	str	r3, [fp, #-16]
/mnt/c/user/privateWorkspace/School/OS/SP/KIV-RTOS/Odevzdani/src/stdlib/src/stdstring.cpp:122
    while (isdigit(c)) {
    a480:	eaffffe9 	b	a42c <_Z4atofPKc+0x1b8>
/mnt/c/user/privateWorkspace/School/OS/SP/KIV-RTOS/Odevzdani/src/stdlib/src/stdstring.cpp:126
    }
    e += i*sign;
    a484:	e51b3018 	ldr	r3, [fp, #-24]	; 0xffffffe8
    a488:	e51b2014 	ldr	r2, [fp, #-20]	; 0xffffffec
    a48c:	e0030392 	mul	r3, r2, r3
    a490:	e51b200c 	ldr	r2, [fp, #-12]
    a494:	e0823003 	add	r3, r2, r3
    a498:	e50b300c 	str	r3, [fp, #-12]
/mnt/c/user/privateWorkspace/School/OS/SP/KIV-RTOS/Odevzdani/src/stdlib/src/stdstring.cpp:128
  }
  while (e > 0) {
    a49c:	e51b300c 	ldr	r3, [fp, #-12]
    a4a0:	e3530000 	cmp	r3, #0
    a4a4:	da000007 	ble	a4c8 <_Z4atofPKc+0x254>
/mnt/c/user/privateWorkspace/School/OS/SP/KIV-RTOS/Odevzdani/src/stdlib/src/stdstring.cpp:129
    a *= 10.0;
    a4a8:	ed5b7a02 	vldr	s15, [fp, #-8]
    a4ac:	ed9f7a1d 	vldr	s14, [pc, #116]	; a528 <_Z4atofPKc+0x2b4>
    a4b0:	ee677a87 	vmul.f32	s15, s15, s14
    a4b4:	ed4b7a02 	vstr	s15, [fp, #-8]
/mnt/c/user/privateWorkspace/School/OS/SP/KIV-RTOS/Odevzdani/src/stdlib/src/stdstring.cpp:130
    e--;
    a4b8:	e51b300c 	ldr	r3, [fp, #-12]
    a4bc:	e2433001 	sub	r3, r3, #1
    a4c0:	e50b300c 	str	r3, [fp, #-12]
/mnt/c/user/privateWorkspace/School/OS/SP/KIV-RTOS/Odevzdani/src/stdlib/src/stdstring.cpp:128
  while (e > 0) {
    a4c4:	eafffff4 	b	a49c <_Z4atofPKc+0x228>
/mnt/c/user/privateWorkspace/School/OS/SP/KIV-RTOS/Odevzdani/src/stdlib/src/stdstring.cpp:132
  }
  while (e < 0) {
    a4c8:	e51b300c 	ldr	r3, [fp, #-12]
    a4cc:	e3530000 	cmp	r3, #0
    a4d0:	aa000009 	bge	a4fc <_Z4atofPKc+0x288>
/mnt/c/user/privateWorkspace/School/OS/SP/KIV-RTOS/Odevzdani/src/stdlib/src/stdstring.cpp:133
    a *= 0.1;
    a4d4:	ed5b7a02 	vldr	s15, [fp, #-8]
    a4d8:	eeb77ae7 	vcvt.f64.f32	d7, s15
    a4dc:	ed9f6b0f 	vldr	d6, [pc, #60]	; a520 <_Z4atofPKc+0x2ac>
    a4e0:	ee277b06 	vmul.f64	d7, d7, d6
    a4e4:	eef77bc7 	vcvt.f32.f64	s15, d7
    a4e8:	ed4b7a02 	vstr	s15, [fp, #-8]
/mnt/c/user/privateWorkspace/School/OS/SP/KIV-RTOS/Odevzdani/src/stdlib/src/stdstring.cpp:134
    e++;
    a4ec:	e51b300c 	ldr	r3, [fp, #-12]
    a4f0:	e2833001 	add	r3, r3, #1
    a4f4:	e50b300c 	str	r3, [fp, #-12]
/mnt/c/user/privateWorkspace/School/OS/SP/KIV-RTOS/Odevzdani/src/stdlib/src/stdstring.cpp:132
  while (e < 0) {
    a4f8:	eafffff2 	b	a4c8 <_Z4atofPKc+0x254>
/mnt/c/user/privateWorkspace/School/OS/SP/KIV-RTOS/Odevzdani/src/stdlib/src/stdstring.cpp:136
  }
  return a;
    a4fc:	e51b3008 	ldr	r3, [fp, #-8]
    a500:	ee073a90 	vmov	s15, r3
/mnt/c/user/privateWorkspace/School/OS/SP/KIV-RTOS/Odevzdani/src/stdlib/src/stdstring.cpp:137
}
    a504:	eeb00a67 	vmov.f32	s0, s15
    a508:	e28bd000 	add	sp, fp, #0
    a50c:	e49db004 	pop	{fp}		; (ldr fp, [sp], #4)
    a510:	e12fff1e 	bx	lr
    a514:	e320f000 	nop	{0}
    a518:	00000000 	andeq	r0, r0, r0
    a51c:	40240000 	eormi	r0, r4, r0
    a520:	9999999a 	ldmibls	r9, {r1, r3, r4, r7, r8, fp, ip, pc}
    a524:	3fb99999 	svccc	0x00b99999
    a528:	41200000 			; <UNDEFINED> instruction: 0x41200000

0000a52c <_Z4ftoaPcf>:
_Z4ftoaPcf():
/mnt/c/user/privateWorkspace/School/OS/SP/KIV-RTOS/Odevzdani/src/stdlib/src/stdstring.cpp:139

void ftoa(char *buffer, float value) {  
    a52c:	e92d4800 	push	{fp, lr}
    a530:	e28db004 	add	fp, sp, #4
    a534:	e24dd020 	sub	sp, sp, #32
    a538:	e50b0020 	str	r0, [fp, #-32]	; 0xffffffe0
    a53c:	ed0b0a09 	vstr	s0, [fp, #-36]	; 0xffffffdc
/mnt/c/user/privateWorkspace/School/OS/SP/KIV-RTOS/Odevzdani/src/stdlib/src/stdstring.cpp:148
     * The largest value we expect is an IEEE 754 double precision real, with maximum magnitude of approximately
     * e+308. The C standard requires an implementation to allow a single conversion to produce up to 512 
     * characters, so that's what we really expect as the buffer size.     
     */

    int exponent = 0;
    a540:	e3a03000 	mov	r3, #0
    a544:	e50b3008 	str	r3, [fp, #-8]
/mnt/c/user/privateWorkspace/School/OS/SP/KIV-RTOS/Odevzdani/src/stdlib/src/stdstring.cpp:149
    int places = 0;
    a548:	e3a03000 	mov	r3, #0
    a54c:	e50b300c 	str	r3, [fp, #-12]
/mnt/c/user/privateWorkspace/School/OS/SP/KIV-RTOS/Odevzdani/src/stdlib/src/stdstring.cpp:150
    const int width = 6;
    a550:	e3a03006 	mov	r3, #6
    a554:	e50b3010 	str	r3, [fp, #-16]
/mnt/c/user/privateWorkspace/School/OS/SP/KIV-RTOS/Odevzdani/src/stdlib/src/stdstring.cpp:152

    if (value == 0.0) {
    a558:	ed5b7a09 	vldr	s15, [fp, #-36]	; 0xffffffdc
    a55c:	eef57a40 	vcmp.f32	s15, #0.0
    a560:	eef1fa10 	vmrs	APSR_nzcv, fpscr
    a564:	1a000007 	bne	a588 <_Z4ftoaPcf+0x5c>
/mnt/c/user/privateWorkspace/School/OS/SP/KIV-RTOS/Odevzdani/src/stdlib/src/stdstring.cpp:153
        buffer[0] = '0';
    a568:	e51b3020 	ldr	r3, [fp, #-32]	; 0xffffffe0
    a56c:	e3a02030 	mov	r2, #48	; 0x30
    a570:	e5c32000 	strb	r2, [r3]
/mnt/c/user/privateWorkspace/School/OS/SP/KIV-RTOS/Odevzdani/src/stdlib/src/stdstring.cpp:154
        buffer[1] = '\0';
    a574:	e51b3020 	ldr	r3, [fp, #-32]	; 0xffffffe0
    a578:	e2833001 	add	r3, r3, #1
    a57c:	e3a02000 	mov	r2, #0
    a580:	e5c32000 	strb	r2, [r3]
/mnt/c/user/privateWorkspace/School/OS/SP/KIV-RTOS/Odevzdani/src/stdlib/src/stdstring.cpp:155
        return;
    a584:	ea000071 	b	a750 <_Z4ftoaPcf+0x224>
/mnt/c/user/privateWorkspace/School/OS/SP/KIV-RTOS/Odevzdani/src/stdlib/src/stdstring.cpp:158
    } 

    if (value < 0.0) {
    a588:	ed5b7a09 	vldr	s15, [fp, #-36]	; 0xffffffdc
    a58c:	eef57ac0 	vcmpe.f32	s15, #0.0
    a590:	eef1fa10 	vmrs	APSR_nzcv, fpscr
    a594:	5a000007 	bpl	a5b8 <_Z4ftoaPcf+0x8c>
/mnt/c/user/privateWorkspace/School/OS/SP/KIV-RTOS/Odevzdani/src/stdlib/src/stdstring.cpp:159
        *buffer++ = '-';
    a598:	e51b3020 	ldr	r3, [fp, #-32]	; 0xffffffe0
    a59c:	e2832001 	add	r2, r3, #1
    a5a0:	e50b2020 	str	r2, [fp, #-32]	; 0xffffffe0
    a5a4:	e3a0202d 	mov	r2, #45	; 0x2d
    a5a8:	e5c32000 	strb	r2, [r3]
/mnt/c/user/privateWorkspace/School/OS/SP/KIV-RTOS/Odevzdani/src/stdlib/src/stdstring.cpp:160
        value = -value;
    a5ac:	ed5b7a09 	vldr	s15, [fp, #-36]	; 0xffffffdc
    a5b0:	eef17a67 	vneg.f32	s15, s15
    a5b4:	ed4b7a09 	vstr	s15, [fp, #-36]	; 0xffffffdc
/mnt/c/user/privateWorkspace/School/OS/SP/KIV-RTOS/Odevzdani/src/stdlib/src/stdstring.cpp:163
    }

    exponent = normalize(&value);
    a5b8:	e24b3024 	sub	r3, fp, #36	; 0x24
    a5bc:	e1a00003 	mov	r0, r3
    a5c0:	ebfffec3 	bl	a0d4 <_Z9normalizePf>
    a5c4:	e50b0008 	str	r0, [fp, #-8]
/mnt/c/user/privateWorkspace/School/OS/SP/KIV-RTOS/Odevzdani/src/stdlib/src/stdstring.cpp:165

    while (exponent > 0) {
    a5c8:	e51b3008 	ldr	r3, [fp, #-8]
    a5cc:	e3530000 	cmp	r3, #0
    a5d0:	da00001c 	ble	a648 <_Z4ftoaPcf+0x11c>
/mnt/c/user/privateWorkspace/School/OS/SP/KIV-RTOS/Odevzdani/src/stdlib/src/stdstring.cpp:166
        int digit = value * 10;
    a5d4:	ed5b7a09 	vldr	s15, [fp, #-36]	; 0xffffffdc
    a5d8:	ed9f7a60 	vldr	s14, [pc, #384]	; a760 <_Z4ftoaPcf+0x234>
    a5dc:	ee677a87 	vmul.f32	s15, s15, s14
    a5e0:	eefd7ae7 	vcvt.s32.f32	s15, s15
    a5e4:	ee173a90 	vmov	r3, s15
    a5e8:	e50b3014 	str	r3, [fp, #-20]	; 0xffffffec
/mnt/c/user/privateWorkspace/School/OS/SP/KIV-RTOS/Odevzdani/src/stdlib/src/stdstring.cpp:167
        *buffer++ = digit + '0';
    a5ec:	e51b3014 	ldr	r3, [fp, #-20]	; 0xffffffec
    a5f0:	e6ef2073 	uxtb	r2, r3
    a5f4:	e51b3020 	ldr	r3, [fp, #-32]	; 0xffffffe0
    a5f8:	e2831001 	add	r1, r3, #1
    a5fc:	e50b1020 	str	r1, [fp, #-32]	; 0xffffffe0
    a600:	e2822030 	add	r2, r2, #48	; 0x30
    a604:	e6ef2072 	uxtb	r2, r2
    a608:	e5c32000 	strb	r2, [r3]
/mnt/c/user/privateWorkspace/School/OS/SP/KIV-RTOS/Odevzdani/src/stdlib/src/stdstring.cpp:168
        value = value * 10 - digit;
    a60c:	ed5b7a09 	vldr	s15, [fp, #-36]	; 0xffffffdc
    a610:	ed9f7a52 	vldr	s14, [pc, #328]	; a760 <_Z4ftoaPcf+0x234>
    a614:	ee277a87 	vmul.f32	s14, s15, s14
    a618:	e51b3014 	ldr	r3, [fp, #-20]	; 0xffffffec
    a61c:	ee073a90 	vmov	s15, r3
    a620:	eef87ae7 	vcvt.f32.s32	s15, s15
    a624:	ee777a67 	vsub.f32	s15, s14, s15
    a628:	ed4b7a09 	vstr	s15, [fp, #-36]	; 0xffffffdc
/mnt/c/user/privateWorkspace/School/OS/SP/KIV-RTOS/Odevzdani/src/stdlib/src/stdstring.cpp:169
        ++places;
    a62c:	e51b300c 	ldr	r3, [fp, #-12]
    a630:	e2833001 	add	r3, r3, #1
    a634:	e50b300c 	str	r3, [fp, #-12]
/mnt/c/user/privateWorkspace/School/OS/SP/KIV-RTOS/Odevzdani/src/stdlib/src/stdstring.cpp:170
        --exponent;
    a638:	e51b3008 	ldr	r3, [fp, #-8]
    a63c:	e2433001 	sub	r3, r3, #1
    a640:	e50b3008 	str	r3, [fp, #-8]
/mnt/c/user/privateWorkspace/School/OS/SP/KIV-RTOS/Odevzdani/src/stdlib/src/stdstring.cpp:165
    while (exponent > 0) {
    a644:	eaffffdf 	b	a5c8 <_Z4ftoaPcf+0x9c>
/mnt/c/user/privateWorkspace/School/OS/SP/KIV-RTOS/Odevzdani/src/stdlib/src/stdstring.cpp:173
    }

    if (places == 0)
    a648:	e51b300c 	ldr	r3, [fp, #-12]
    a64c:	e3530000 	cmp	r3, #0
    a650:	1a000004 	bne	a668 <_Z4ftoaPcf+0x13c>
/mnt/c/user/privateWorkspace/School/OS/SP/KIV-RTOS/Odevzdani/src/stdlib/src/stdstring.cpp:174
        *buffer++ = '0';
    a654:	e51b3020 	ldr	r3, [fp, #-32]	; 0xffffffe0
    a658:	e2832001 	add	r2, r3, #1
    a65c:	e50b2020 	str	r2, [fp, #-32]	; 0xffffffe0
    a660:	e3a02030 	mov	r2, #48	; 0x30
    a664:	e5c32000 	strb	r2, [r3]
/mnt/c/user/privateWorkspace/School/OS/SP/KIV-RTOS/Odevzdani/src/stdlib/src/stdstring.cpp:176

    *buffer++ = '.';
    a668:	e51b3020 	ldr	r3, [fp, #-32]	; 0xffffffe0
    a66c:	e2832001 	add	r2, r3, #1
    a670:	e50b2020 	str	r2, [fp, #-32]	; 0xffffffe0
    a674:	e3a0202e 	mov	r2, #46	; 0x2e
    a678:	e5c32000 	strb	r2, [r3]
/mnt/c/user/privateWorkspace/School/OS/SP/KIV-RTOS/Odevzdani/src/stdlib/src/stdstring.cpp:178

    while (exponent < 0 && places < width) {
    a67c:	e51b3008 	ldr	r3, [fp, #-8]
    a680:	e3530000 	cmp	r3, #0
    a684:	aa00000e 	bge	a6c4 <_Z4ftoaPcf+0x198>
/mnt/c/user/privateWorkspace/School/OS/SP/KIV-RTOS/Odevzdani/src/stdlib/src/stdstring.cpp:178 (discriminator 1)
    a688:	e51b300c 	ldr	r3, [fp, #-12]
    a68c:	e3530005 	cmp	r3, #5
    a690:	ca00000b 	bgt	a6c4 <_Z4ftoaPcf+0x198>
/mnt/c/user/privateWorkspace/School/OS/SP/KIV-RTOS/Odevzdani/src/stdlib/src/stdstring.cpp:179
        *buffer++ = '0';
    a694:	e51b3020 	ldr	r3, [fp, #-32]	; 0xffffffe0
    a698:	e2832001 	add	r2, r3, #1
    a69c:	e50b2020 	str	r2, [fp, #-32]	; 0xffffffe0
    a6a0:	e3a02030 	mov	r2, #48	; 0x30
    a6a4:	e5c32000 	strb	r2, [r3]
/mnt/c/user/privateWorkspace/School/OS/SP/KIV-RTOS/Odevzdani/src/stdlib/src/stdstring.cpp:180
        --exponent;
    a6a8:	e51b3008 	ldr	r3, [fp, #-8]
    a6ac:	e2433001 	sub	r3, r3, #1
    a6b0:	e50b3008 	str	r3, [fp, #-8]
/mnt/c/user/privateWorkspace/School/OS/SP/KIV-RTOS/Odevzdani/src/stdlib/src/stdstring.cpp:181
        ++places;
    a6b4:	e51b300c 	ldr	r3, [fp, #-12]
    a6b8:	e2833001 	add	r3, r3, #1
    a6bc:	e50b300c 	str	r3, [fp, #-12]
/mnt/c/user/privateWorkspace/School/OS/SP/KIV-RTOS/Odevzdani/src/stdlib/src/stdstring.cpp:178
    while (exponent < 0 && places < width) {
    a6c0:	eaffffed 	b	a67c <_Z4ftoaPcf+0x150>
/mnt/c/user/privateWorkspace/School/OS/SP/KIV-RTOS/Odevzdani/src/stdlib/src/stdstring.cpp:184
    }

    while (places < width) {
    a6c4:	e51b300c 	ldr	r3, [fp, #-12]
    a6c8:	e3530005 	cmp	r3, #5
    a6cc:	ca00001c 	bgt	a744 <_Z4ftoaPcf+0x218>
/mnt/c/user/privateWorkspace/School/OS/SP/KIV-RTOS/Odevzdani/src/stdlib/src/stdstring.cpp:185
        int digit = value * 10.0;
    a6d0:	ed5b7a09 	vldr	s15, [fp, #-36]	; 0xffffffdc
    a6d4:	eeb77ae7 	vcvt.f64.f32	d7, s15
    a6d8:	ed9f6b1e 	vldr	d6, [pc, #120]	; a758 <_Z4ftoaPcf+0x22c>
    a6dc:	ee277b06 	vmul.f64	d7, d7, d6
    a6e0:	eefd7bc7 	vcvt.s32.f64	s15, d7
    a6e4:	ee173a90 	vmov	r3, s15
    a6e8:	e50b3018 	str	r3, [fp, #-24]	; 0xffffffe8
/mnt/c/user/privateWorkspace/School/OS/SP/KIV-RTOS/Odevzdani/src/stdlib/src/stdstring.cpp:186
        *buffer++ = digit + '0';
    a6ec:	e51b3018 	ldr	r3, [fp, #-24]	; 0xffffffe8
    a6f0:	e6ef2073 	uxtb	r2, r3
    a6f4:	e51b3020 	ldr	r3, [fp, #-32]	; 0xffffffe0
    a6f8:	e2831001 	add	r1, r3, #1
    a6fc:	e50b1020 	str	r1, [fp, #-32]	; 0xffffffe0
    a700:	e2822030 	add	r2, r2, #48	; 0x30
    a704:	e6ef2072 	uxtb	r2, r2
    a708:	e5c32000 	strb	r2, [r3]
/mnt/c/user/privateWorkspace/School/OS/SP/KIV-RTOS/Odevzdani/src/stdlib/src/stdstring.cpp:187
        value = value * 10.0 - digit;
    a70c:	ed5b7a09 	vldr	s15, [fp, #-36]	; 0xffffffdc
    a710:	eeb77ae7 	vcvt.f64.f32	d7, s15
    a714:	ed9f6b0f 	vldr	d6, [pc, #60]	; a758 <_Z4ftoaPcf+0x22c>
    a718:	ee276b06 	vmul.f64	d6, d7, d6
    a71c:	e51b3018 	ldr	r3, [fp, #-24]	; 0xffffffe8
    a720:	ee073a90 	vmov	s15, r3
    a724:	eeb87be7 	vcvt.f64.s32	d7, s15
    a728:	ee367b47 	vsub.f64	d7, d6, d7
    a72c:	eef77bc7 	vcvt.f32.f64	s15, d7
    a730:	ed4b7a09 	vstr	s15, [fp, #-36]	; 0xffffffdc
/mnt/c/user/privateWorkspace/School/OS/SP/KIV-RTOS/Odevzdani/src/stdlib/src/stdstring.cpp:188
        ++places;
    a734:	e51b300c 	ldr	r3, [fp, #-12]
    a738:	e2833001 	add	r3, r3, #1
    a73c:	e50b300c 	str	r3, [fp, #-12]
/mnt/c/user/privateWorkspace/School/OS/SP/KIV-RTOS/Odevzdani/src/stdlib/src/stdstring.cpp:184
    while (places < width) {
    a740:	eaffffdf 	b	a6c4 <_Z4ftoaPcf+0x198>
/mnt/c/user/privateWorkspace/School/OS/SP/KIV-RTOS/Odevzdani/src/stdlib/src/stdstring.cpp:190
    }
    *buffer = '\0';
    a744:	e51b3020 	ldr	r3, [fp, #-32]	; 0xffffffe0
    a748:	e3a02000 	mov	r2, #0
    a74c:	e5c32000 	strb	r2, [r3]
/mnt/c/user/privateWorkspace/School/OS/SP/KIV-RTOS/Odevzdani/src/stdlib/src/stdstring.cpp:191
}
    a750:	e24bd004 	sub	sp, fp, #4
    a754:	e8bd8800 	pop	{fp, pc}
    a758:	00000000 	andeq	r0, r0, r0
    a75c:	40240000 	eormi	r0, r4, r0
    a760:	41200000 			; <UNDEFINED> instruction: 0x41200000

0000a764 <_Z7strncpyPcPKci>:
_Z7strncpyPcPKci():
/mnt/c/user/privateWorkspace/School/OS/SP/KIV-RTOS/Odevzdani/src/stdlib/src/stdstring.cpp:194

char* strncpy(char* dest, const char *src, int num)
{
    a764:	e52db004 	push	{fp}		; (str fp, [sp, #-4]!)
    a768:	e28db000 	add	fp, sp, #0
    a76c:	e24dd01c 	sub	sp, sp, #28
    a770:	e50b0010 	str	r0, [fp, #-16]
    a774:	e50b1014 	str	r1, [fp, #-20]	; 0xffffffec
    a778:	e50b2018 	str	r2, [fp, #-24]	; 0xffffffe8
/mnt/c/user/privateWorkspace/School/OS/SP/KIV-RTOS/Odevzdani/src/stdlib/src/stdstring.cpp:197
	int i;

	for (i = 0; i < num && src[i] != '\0'; i++)
    a77c:	e3a03000 	mov	r3, #0
    a780:	e50b3008 	str	r3, [fp, #-8]
/mnt/c/user/privateWorkspace/School/OS/SP/KIV-RTOS/Odevzdani/src/stdlib/src/stdstring.cpp:197 (discriminator 4)
    a784:	e51b2008 	ldr	r2, [fp, #-8]
    a788:	e51b3018 	ldr	r3, [fp, #-24]	; 0xffffffe8
    a78c:	e1520003 	cmp	r2, r3
    a790:	aa000011 	bge	a7dc <_Z7strncpyPcPKci+0x78>
/mnt/c/user/privateWorkspace/School/OS/SP/KIV-RTOS/Odevzdani/src/stdlib/src/stdstring.cpp:197 (discriminator 2)
    a794:	e51b3008 	ldr	r3, [fp, #-8]
    a798:	e51b2014 	ldr	r2, [fp, #-20]	; 0xffffffec
    a79c:	e0823003 	add	r3, r2, r3
    a7a0:	e5d33000 	ldrb	r3, [r3]
    a7a4:	e3530000 	cmp	r3, #0
    a7a8:	0a00000b 	beq	a7dc <_Z7strncpyPcPKci+0x78>
/mnt/c/user/privateWorkspace/School/OS/SP/KIV-RTOS/Odevzdani/src/stdlib/src/stdstring.cpp:198 (discriminator 3)
		dest[i] = src[i];
    a7ac:	e51b3008 	ldr	r3, [fp, #-8]
    a7b0:	e51b2014 	ldr	r2, [fp, #-20]	; 0xffffffec
    a7b4:	e0822003 	add	r2, r2, r3
    a7b8:	e51b3008 	ldr	r3, [fp, #-8]
    a7bc:	e51b1010 	ldr	r1, [fp, #-16]
    a7c0:	e0813003 	add	r3, r1, r3
    a7c4:	e5d22000 	ldrb	r2, [r2]
    a7c8:	e5c32000 	strb	r2, [r3]
/mnt/c/user/privateWorkspace/School/OS/SP/KIV-RTOS/Odevzdani/src/stdlib/src/stdstring.cpp:197 (discriminator 3)
	for (i = 0; i < num && src[i] != '\0'; i++)
    a7cc:	e51b3008 	ldr	r3, [fp, #-8]
    a7d0:	e2833001 	add	r3, r3, #1
    a7d4:	e50b3008 	str	r3, [fp, #-8]
    a7d8:	eaffffe9 	b	a784 <_Z7strncpyPcPKci+0x20>
/mnt/c/user/privateWorkspace/School/OS/SP/KIV-RTOS/Odevzdani/src/stdlib/src/stdstring.cpp:199 (discriminator 2)
	for (; i < num; i++)
    a7dc:	e51b2008 	ldr	r2, [fp, #-8]
    a7e0:	e51b3018 	ldr	r3, [fp, #-24]	; 0xffffffe8
    a7e4:	e1520003 	cmp	r2, r3
    a7e8:	aa000008 	bge	a810 <_Z7strncpyPcPKci+0xac>
/mnt/c/user/privateWorkspace/School/OS/SP/KIV-RTOS/Odevzdani/src/stdlib/src/stdstring.cpp:200 (discriminator 1)
		dest[i] = '\0';
    a7ec:	e51b3008 	ldr	r3, [fp, #-8]
    a7f0:	e51b2010 	ldr	r2, [fp, #-16]
    a7f4:	e0823003 	add	r3, r2, r3
    a7f8:	e3a02000 	mov	r2, #0
    a7fc:	e5c32000 	strb	r2, [r3]
/mnt/c/user/privateWorkspace/School/OS/SP/KIV-RTOS/Odevzdani/src/stdlib/src/stdstring.cpp:199 (discriminator 1)
	for (; i < num; i++)
    a800:	e51b3008 	ldr	r3, [fp, #-8]
    a804:	e2833001 	add	r3, r3, #1
    a808:	e50b3008 	str	r3, [fp, #-8]
    a80c:	eafffff2 	b	a7dc <_Z7strncpyPcPKci+0x78>
/mnt/c/user/privateWorkspace/School/OS/SP/KIV-RTOS/Odevzdani/src/stdlib/src/stdstring.cpp:202

   return dest;
    a810:	e51b3010 	ldr	r3, [fp, #-16]
/mnt/c/user/privateWorkspace/School/OS/SP/KIV-RTOS/Odevzdani/src/stdlib/src/stdstring.cpp:203
}
    a814:	e1a00003 	mov	r0, r3
    a818:	e28bd000 	add	sp, fp, #0
    a81c:	e49db004 	pop	{fp}		; (ldr fp, [sp], #4)
    a820:	e12fff1e 	bx	lr

0000a824 <_Z6strcatPcPKc>:
_Z6strcatPcPKc():
/mnt/c/user/privateWorkspace/School/OS/SP/KIV-RTOS/Odevzdani/src/stdlib/src/stdstring.cpp:206

char* strcat(char *dest, const char *src)
{
    a824:	e52db004 	push	{fp}		; (str fp, [sp, #-4]!)
    a828:	e28db000 	add	fp, sp, #0
    a82c:	e24dd014 	sub	sp, sp, #20
    a830:	e50b0010 	str	r0, [fp, #-16]
    a834:	e50b1014 	str	r1, [fp, #-20]	; 0xffffffec
/mnt/c/user/privateWorkspace/School/OS/SP/KIV-RTOS/Odevzdani/src/stdlib/src/stdstring.cpp:209
    int i,j;

    for (i = 0; dest[i] != '\0'; i++)
    a838:	e3a03000 	mov	r3, #0
    a83c:	e50b3008 	str	r3, [fp, #-8]
/mnt/c/user/privateWorkspace/School/OS/SP/KIV-RTOS/Odevzdani/src/stdlib/src/stdstring.cpp:209 (discriminator 3)
    a840:	e51b3008 	ldr	r3, [fp, #-8]
    a844:	e51b2010 	ldr	r2, [fp, #-16]
    a848:	e0823003 	add	r3, r2, r3
    a84c:	e5d33000 	ldrb	r3, [r3]
    a850:	e3530000 	cmp	r3, #0
    a854:	0a000003 	beq	a868 <_Z6strcatPcPKc+0x44>
/mnt/c/user/privateWorkspace/School/OS/SP/KIV-RTOS/Odevzdani/src/stdlib/src/stdstring.cpp:209 (discriminator 2)
    a858:	e51b3008 	ldr	r3, [fp, #-8]
    a85c:	e2833001 	add	r3, r3, #1
    a860:	e50b3008 	str	r3, [fp, #-8]
    a864:	eafffff5 	b	a840 <_Z6strcatPcPKc+0x1c>
/mnt/c/user/privateWorkspace/School/OS/SP/KIV-RTOS/Odevzdani/src/stdlib/src/stdstring.cpp:211
        ;
    for (j = 0; src[j] != '\0'; j++)
    a868:	e3a03000 	mov	r3, #0
    a86c:	e50b300c 	str	r3, [fp, #-12]
/mnt/c/user/privateWorkspace/School/OS/SP/KIV-RTOS/Odevzdani/src/stdlib/src/stdstring.cpp:211 (discriminator 3)
    a870:	e51b300c 	ldr	r3, [fp, #-12]
    a874:	e51b2014 	ldr	r2, [fp, #-20]	; 0xffffffec
    a878:	e0823003 	add	r3, r2, r3
    a87c:	e5d33000 	ldrb	r3, [r3]
    a880:	e3530000 	cmp	r3, #0
    a884:	0a00000e 	beq	a8c4 <_Z6strcatPcPKc+0xa0>
/mnt/c/user/privateWorkspace/School/OS/SP/KIV-RTOS/Odevzdani/src/stdlib/src/stdstring.cpp:212 (discriminator 2)
        dest[i+j] = src[j];
    a888:	e51b300c 	ldr	r3, [fp, #-12]
    a88c:	e51b2014 	ldr	r2, [fp, #-20]	; 0xffffffec
    a890:	e0822003 	add	r2, r2, r3
    a894:	e51b1008 	ldr	r1, [fp, #-8]
    a898:	e51b300c 	ldr	r3, [fp, #-12]
    a89c:	e0813003 	add	r3, r1, r3
    a8a0:	e1a01003 	mov	r1, r3
    a8a4:	e51b3010 	ldr	r3, [fp, #-16]
    a8a8:	e0833001 	add	r3, r3, r1
    a8ac:	e5d22000 	ldrb	r2, [r2]
    a8b0:	e5c32000 	strb	r2, [r3]
/mnt/c/user/privateWorkspace/School/OS/SP/KIV-RTOS/Odevzdani/src/stdlib/src/stdstring.cpp:211 (discriminator 2)
    for (j = 0; src[j] != '\0'; j++)
    a8b4:	e51b300c 	ldr	r3, [fp, #-12]
    a8b8:	e2833001 	add	r3, r3, #1
    a8bc:	e50b300c 	str	r3, [fp, #-12]
    a8c0:	eaffffea 	b	a870 <_Z6strcatPcPKc+0x4c>
/mnt/c/user/privateWorkspace/School/OS/SP/KIV-RTOS/Odevzdani/src/stdlib/src/stdstring.cpp:214

    dest[i+j] = '\0';
    a8c4:	e51b2008 	ldr	r2, [fp, #-8]
    a8c8:	e51b300c 	ldr	r3, [fp, #-12]
    a8cc:	e0823003 	add	r3, r2, r3
    a8d0:	e1a02003 	mov	r2, r3
    a8d4:	e51b3010 	ldr	r3, [fp, #-16]
    a8d8:	e0833002 	add	r3, r3, r2
    a8dc:	e3a02000 	mov	r2, #0
    a8e0:	e5c32000 	strb	r2, [r3]
/mnt/c/user/privateWorkspace/School/OS/SP/KIV-RTOS/Odevzdani/src/stdlib/src/stdstring.cpp:216
	
    return dest;
    a8e4:	e51b3010 	ldr	r3, [fp, #-16]
/mnt/c/user/privateWorkspace/School/OS/SP/KIV-RTOS/Odevzdani/src/stdlib/src/stdstring.cpp:217
}
    a8e8:	e1a00003 	mov	r0, r3
    a8ec:	e28bd000 	add	sp, fp, #0
    a8f0:	e49db004 	pop	{fp}		; (ldr fp, [sp], #4)
    a8f4:	e12fff1e 	bx	lr

0000a8f8 <_Z7strncmpPKcS0_i>:
_Z7strncmpPKcS0_i():
/mnt/c/user/privateWorkspace/School/OS/SP/KIV-RTOS/Odevzdani/src/stdlib/src/stdstring.cpp:220

int strncmp(const char *s1, const char *s2, int num)
{
    a8f8:	e52db004 	push	{fp}		; (str fp, [sp, #-4]!)
    a8fc:	e28db000 	add	fp, sp, #0
    a900:	e24dd01c 	sub	sp, sp, #28
    a904:	e50b0010 	str	r0, [fp, #-16]
    a908:	e50b1014 	str	r1, [fp, #-20]	; 0xffffffec
    a90c:	e50b2018 	str	r2, [fp, #-24]	; 0xffffffe8
/mnt/c/user/privateWorkspace/School/OS/SP/KIV-RTOS/Odevzdani/src/stdlib/src/stdstring.cpp:222
	unsigned char u1, u2;
  	while (num-- > 0)
    a910:	e51b3018 	ldr	r3, [fp, #-24]	; 0xffffffe8
    a914:	e2432001 	sub	r2, r3, #1
    a918:	e50b2018 	str	r2, [fp, #-24]	; 0xffffffe8
    a91c:	e3530000 	cmp	r3, #0
    a920:	c3a03001 	movgt	r3, #1
    a924:	d3a03000 	movle	r3, #0
    a928:	e6ef3073 	uxtb	r3, r3
    a92c:	e3530000 	cmp	r3, #0
    a930:	0a000016 	beq	a990 <_Z7strncmpPKcS0_i+0x98>
/mnt/c/user/privateWorkspace/School/OS/SP/KIV-RTOS/Odevzdani/src/stdlib/src/stdstring.cpp:224
    {
      	u1 = (unsigned char) *s1++;
    a934:	e51b3010 	ldr	r3, [fp, #-16]
    a938:	e2832001 	add	r2, r3, #1
    a93c:	e50b2010 	str	r2, [fp, #-16]
    a940:	e5d33000 	ldrb	r3, [r3]
    a944:	e54b3005 	strb	r3, [fp, #-5]
/mnt/c/user/privateWorkspace/School/OS/SP/KIV-RTOS/Odevzdani/src/stdlib/src/stdstring.cpp:225
     	u2 = (unsigned char) *s2++;
    a948:	e51b3014 	ldr	r3, [fp, #-20]	; 0xffffffec
    a94c:	e2832001 	add	r2, r3, #1
    a950:	e50b2014 	str	r2, [fp, #-20]	; 0xffffffec
    a954:	e5d33000 	ldrb	r3, [r3]
    a958:	e54b3006 	strb	r3, [fp, #-6]
/mnt/c/user/privateWorkspace/School/OS/SP/KIV-RTOS/Odevzdani/src/stdlib/src/stdstring.cpp:226
      	if (u1 != u2)
    a95c:	e55b2005 	ldrb	r2, [fp, #-5]
    a960:	e55b3006 	ldrb	r3, [fp, #-6]
    a964:	e1520003 	cmp	r2, r3
    a968:	0a000003 	beq	a97c <_Z7strncmpPKcS0_i+0x84>
/mnt/c/user/privateWorkspace/School/OS/SP/KIV-RTOS/Odevzdani/src/stdlib/src/stdstring.cpp:227
        	return u1 - u2;
    a96c:	e55b2005 	ldrb	r2, [fp, #-5]
    a970:	e55b3006 	ldrb	r3, [fp, #-6]
    a974:	e0423003 	sub	r3, r2, r3
    a978:	ea000005 	b	a994 <_Z7strncmpPKcS0_i+0x9c>
/mnt/c/user/privateWorkspace/School/OS/SP/KIV-RTOS/Odevzdani/src/stdlib/src/stdstring.cpp:228
      	if (u1 == '\0')
    a97c:	e55b3005 	ldrb	r3, [fp, #-5]
    a980:	e3530000 	cmp	r3, #0
    a984:	1affffe1 	bne	a910 <_Z7strncmpPKcS0_i+0x18>
/mnt/c/user/privateWorkspace/School/OS/SP/KIV-RTOS/Odevzdani/src/stdlib/src/stdstring.cpp:229
        	return 0;
    a988:	e3a03000 	mov	r3, #0
    a98c:	ea000000 	b	a994 <_Z7strncmpPKcS0_i+0x9c>
/mnt/c/user/privateWorkspace/School/OS/SP/KIV-RTOS/Odevzdani/src/stdlib/src/stdstring.cpp:232
    }

  	return 0;
    a990:	e3a03000 	mov	r3, #0
/mnt/c/user/privateWorkspace/School/OS/SP/KIV-RTOS/Odevzdani/src/stdlib/src/stdstring.cpp:233
}
    a994:	e1a00003 	mov	r0, r3
    a998:	e28bd000 	add	sp, fp, #0
    a99c:	e49db004 	pop	{fp}		; (ldr fp, [sp], #4)
    a9a0:	e12fff1e 	bx	lr

0000a9a4 <_Z6strlenPKc>:
_Z6strlenPKc():
/mnt/c/user/privateWorkspace/School/OS/SP/KIV-RTOS/Odevzdani/src/stdlib/src/stdstring.cpp:236

int strlen(const char* s)
{
    a9a4:	e52db004 	push	{fp}		; (str fp, [sp, #-4]!)
    a9a8:	e28db000 	add	fp, sp, #0
    a9ac:	e24dd014 	sub	sp, sp, #20
    a9b0:	e50b0010 	str	r0, [fp, #-16]
/mnt/c/user/privateWorkspace/School/OS/SP/KIV-RTOS/Odevzdani/src/stdlib/src/stdstring.cpp:237
	int i = 0;
    a9b4:	e3a03000 	mov	r3, #0
    a9b8:	e50b3008 	str	r3, [fp, #-8]
/mnt/c/user/privateWorkspace/School/OS/SP/KIV-RTOS/Odevzdani/src/stdlib/src/stdstring.cpp:239

	while (s[i] != '\0')
    a9bc:	e51b3008 	ldr	r3, [fp, #-8]
    a9c0:	e51b2010 	ldr	r2, [fp, #-16]
    a9c4:	e0823003 	add	r3, r2, r3
    a9c8:	e5d33000 	ldrb	r3, [r3]
    a9cc:	e3530000 	cmp	r3, #0
    a9d0:	0a000003 	beq	a9e4 <_Z6strlenPKc+0x40>
/mnt/c/user/privateWorkspace/School/OS/SP/KIV-RTOS/Odevzdani/src/stdlib/src/stdstring.cpp:240
		i++;
    a9d4:	e51b3008 	ldr	r3, [fp, #-8]
    a9d8:	e2833001 	add	r3, r3, #1
    a9dc:	e50b3008 	str	r3, [fp, #-8]
/mnt/c/user/privateWorkspace/School/OS/SP/KIV-RTOS/Odevzdani/src/stdlib/src/stdstring.cpp:239
	while (s[i] != '\0')
    a9e0:	eafffff5 	b	a9bc <_Z6strlenPKc+0x18>
/mnt/c/user/privateWorkspace/School/OS/SP/KIV-RTOS/Odevzdani/src/stdlib/src/stdstring.cpp:242

	return i;
    a9e4:	e51b3008 	ldr	r3, [fp, #-8]
/mnt/c/user/privateWorkspace/School/OS/SP/KIV-RTOS/Odevzdani/src/stdlib/src/stdstring.cpp:243
}
    a9e8:	e1a00003 	mov	r0, r3
    a9ec:	e28bd000 	add	sp, fp, #0
    a9f0:	e49db004 	pop	{fp}		; (ldr fp, [sp], #4)
    a9f4:	e12fff1e 	bx	lr

0000a9f8 <_Z5bzeroPvi>:
_Z5bzeroPvi():
/mnt/c/user/privateWorkspace/School/OS/SP/KIV-RTOS/Odevzdani/src/stdlib/src/stdstring.cpp:246

void bzero(void* memory, int length)
{
    a9f8:	e52db004 	push	{fp}		; (str fp, [sp, #-4]!)
    a9fc:	e28db000 	add	fp, sp, #0
    aa00:	e24dd014 	sub	sp, sp, #20
    aa04:	e50b0010 	str	r0, [fp, #-16]
    aa08:	e50b1014 	str	r1, [fp, #-20]	; 0xffffffec
/mnt/c/user/privateWorkspace/School/OS/SP/KIV-RTOS/Odevzdani/src/stdlib/src/stdstring.cpp:247
	char* mem = reinterpret_cast<char*>(memory);
    aa0c:	e51b3010 	ldr	r3, [fp, #-16]
    aa10:	e50b300c 	str	r3, [fp, #-12]
/mnt/c/user/privateWorkspace/School/OS/SP/KIV-RTOS/Odevzdani/src/stdlib/src/stdstring.cpp:249

	for (int i = 0; i < length; i++)
    aa14:	e3a03000 	mov	r3, #0
    aa18:	e50b3008 	str	r3, [fp, #-8]
/mnt/c/user/privateWorkspace/School/OS/SP/KIV-RTOS/Odevzdani/src/stdlib/src/stdstring.cpp:249 (discriminator 3)
    aa1c:	e51b2008 	ldr	r2, [fp, #-8]
    aa20:	e51b3014 	ldr	r3, [fp, #-20]	; 0xffffffec
    aa24:	e1520003 	cmp	r2, r3
    aa28:	aa000008 	bge	aa50 <_Z5bzeroPvi+0x58>
/mnt/c/user/privateWorkspace/School/OS/SP/KIV-RTOS/Odevzdani/src/stdlib/src/stdstring.cpp:250 (discriminator 2)
		mem[i] = 0;
    aa2c:	e51b3008 	ldr	r3, [fp, #-8]
    aa30:	e51b200c 	ldr	r2, [fp, #-12]
    aa34:	e0823003 	add	r3, r2, r3
    aa38:	e3a02000 	mov	r2, #0
    aa3c:	e5c32000 	strb	r2, [r3]
/mnt/c/user/privateWorkspace/School/OS/SP/KIV-RTOS/Odevzdani/src/stdlib/src/stdstring.cpp:249 (discriminator 2)
	for (int i = 0; i < length; i++)
    aa40:	e51b3008 	ldr	r3, [fp, #-8]
    aa44:	e2833001 	add	r3, r3, #1
    aa48:	e50b3008 	str	r3, [fp, #-8]
    aa4c:	eafffff2 	b	aa1c <_Z5bzeroPvi+0x24>
/mnt/c/user/privateWorkspace/School/OS/SP/KIV-RTOS/Odevzdani/src/stdlib/src/stdstring.cpp:251
}
    aa50:	e320f000 	nop	{0}
    aa54:	e28bd000 	add	sp, fp, #0
    aa58:	e49db004 	pop	{fp}		; (ldr fp, [sp], #4)
    aa5c:	e12fff1e 	bx	lr

0000aa60 <_Z6memcpyPKvPvi>:
_Z6memcpyPKvPvi():
/mnt/c/user/privateWorkspace/School/OS/SP/KIV-RTOS/Odevzdani/src/stdlib/src/stdstring.cpp:254

void memcpy(const void* src, void* dst, int num)
{
    aa60:	e52db004 	push	{fp}		; (str fp, [sp, #-4]!)
    aa64:	e28db000 	add	fp, sp, #0
    aa68:	e24dd024 	sub	sp, sp, #36	; 0x24
    aa6c:	e50b0018 	str	r0, [fp, #-24]	; 0xffffffe8
    aa70:	e50b101c 	str	r1, [fp, #-28]	; 0xffffffe4
    aa74:	e50b2020 	str	r2, [fp, #-32]	; 0xffffffe0
/mnt/c/user/privateWorkspace/School/OS/SP/KIV-RTOS/Odevzdani/src/stdlib/src/stdstring.cpp:255
	const char* memsrc = reinterpret_cast<const char*>(src);
    aa78:	e51b3018 	ldr	r3, [fp, #-24]	; 0xffffffe8
    aa7c:	e50b300c 	str	r3, [fp, #-12]
/mnt/c/user/privateWorkspace/School/OS/SP/KIV-RTOS/Odevzdani/src/stdlib/src/stdstring.cpp:256
	char* memdst = reinterpret_cast<char*>(dst);
    aa80:	e51b301c 	ldr	r3, [fp, #-28]	; 0xffffffe4
    aa84:	e50b3010 	str	r3, [fp, #-16]
/mnt/c/user/privateWorkspace/School/OS/SP/KIV-RTOS/Odevzdani/src/stdlib/src/stdstring.cpp:258

	for (int i = 0; i < num; i++)
    aa88:	e3a03000 	mov	r3, #0
    aa8c:	e50b3008 	str	r3, [fp, #-8]
/mnt/c/user/privateWorkspace/School/OS/SP/KIV-RTOS/Odevzdani/src/stdlib/src/stdstring.cpp:258 (discriminator 3)
    aa90:	e51b2008 	ldr	r2, [fp, #-8]
    aa94:	e51b3020 	ldr	r3, [fp, #-32]	; 0xffffffe0
    aa98:	e1520003 	cmp	r2, r3
    aa9c:	aa00000b 	bge	aad0 <_Z6memcpyPKvPvi+0x70>
/mnt/c/user/privateWorkspace/School/OS/SP/KIV-RTOS/Odevzdani/src/stdlib/src/stdstring.cpp:259 (discriminator 2)
		memdst[i] = memsrc[i];
    aaa0:	e51b3008 	ldr	r3, [fp, #-8]
    aaa4:	e51b200c 	ldr	r2, [fp, #-12]
    aaa8:	e0822003 	add	r2, r2, r3
    aaac:	e51b3008 	ldr	r3, [fp, #-8]
    aab0:	e51b1010 	ldr	r1, [fp, #-16]
    aab4:	e0813003 	add	r3, r1, r3
    aab8:	e5d22000 	ldrb	r2, [r2]
    aabc:	e5c32000 	strb	r2, [r3]
/mnt/c/user/privateWorkspace/School/OS/SP/KIV-RTOS/Odevzdani/src/stdlib/src/stdstring.cpp:258 (discriminator 2)
	for (int i = 0; i < num; i++)
    aac0:	e51b3008 	ldr	r3, [fp, #-8]
    aac4:	e2833001 	add	r3, r3, #1
    aac8:	e50b3008 	str	r3, [fp, #-8]
    aacc:	eaffffef 	b	aa90 <_Z6memcpyPKvPvi+0x30>
/mnt/c/user/privateWorkspace/School/OS/SP/KIV-RTOS/Odevzdani/src/stdlib/src/stdstring.cpp:260
}
    aad0:	e320f000 	nop	{0}
    aad4:	e28bd000 	add	sp, fp, #0
    aad8:	e49db004 	pop	{fp}		; (ldr fp, [sp], #4)
    aadc:	e12fff1e 	bx	lr

0000aae0 <_ZN10Read_UtilsC1Ev>:
_ZN10Read_UtilsC2Ev():
/mnt/c/user/privateWorkspace/School/OS/SP/KIV-RTOS/Odevzdani/src/stdutils/src/read_utils.cpp:5
#include <read_utils.h>
#include <stdfile.h>
#include <stdstring.h>

Read_Utils::Read_Utils() {
    aae0:	e92d4800 	push	{fp, lr}
    aae4:	e28db004 	add	fp, sp, #4
    aae8:	e24dd008 	sub	sp, sp, #8
    aaec:	e50b0008 	str	r0, [fp, #-8]
    aaf0:	e51b3008 	ldr	r3, [fp, #-8]
    aaf4:	e1a00003 	mov	r0, r3
    aaf8:	eb0000b7 	bl	addc <_ZN15Circular_BufferC1Ev>
/mnt/c/user/privateWorkspace/School/OS/SP/KIV-RTOS/Odevzdani/src/stdutils/src/read_utils.cpp:7
    // Prazdny konstruktor
};
    aafc:	e51b3008 	ldr	r3, [fp, #-8]
    ab00:	e1a00003 	mov	r0, r3
    ab04:	e24bd004 	sub	sp, fp, #4
    ab08:	e8bd8800 	pop	{fp, pc}

0000ab0c <_ZN10Read_Utils9read_lineEPcjb>:
_ZN10Read_Utils9read_lineEPcjb():
/mnt/c/user/privateWorkspace/School/OS/SP/KIV-RTOS/Odevzdani/src/stdutils/src/read_utils.cpp:9

uint32_t Read_Utils::read_line(char * returnBuffer, uint32_t file, bool blocking) {
    ab0c:	e92d4800 	push	{fp, lr}
    ab10:	e28db004 	add	fp, sp, #4
    ab14:	e24dd0a0 	sub	sp, sp, #160	; 0xa0
    ab18:	e50b0098 	str	r0, [fp, #-152]	; 0xffffff68
    ab1c:	e50b109c 	str	r1, [fp, #-156]	; 0xffffff64
    ab20:	e50b20a0 	str	r2, [fp, #-160]	; 0xffffff60
    ab24:	e54b30a1 	strb	r3, [fp, #-161]	; 0xffffff5f
/mnt/c/user/privateWorkspace/School/OS/SP/KIV-RTOS/Odevzdani/src/stdutils/src/read_utils.cpp:11
    char readBuffer[128];
	bzero(readBuffer, 128);
    ab28:	e24b3090 	sub	r3, fp, #144	; 0x90
    ab2c:	e3a01080 	mov	r1, #128	; 0x80
    ab30:	e1a00003 	mov	r0, r3
    ab34:	ebffffaf 	bl	a9f8 <_Z5bzeroPvi>
/mnt/c/user/privateWorkspace/School/OS/SP/KIV-RTOS/Odevzdani/src/stdutils/src/read_utils.cpp:12
	uint32_t readChars = 0;
    ab38:	e3a03000 	mov	r3, #0
    ab3c:	e50b3008 	str	r3, [fp, #-8]
/mnt/c/user/privateWorkspace/School/OS/SP/KIV-RTOS/Odevzdani/src/stdutils/src/read_utils.cpp:16

    //Read from UART if data are available.
	do {
		if (blocking == true) {	//If we want to block the process, we just wait until we receive something from  UART
    ab40:	e55b30a1 	ldrb	r3, [fp, #-161]	; 0xffffff5f
    ab44:	e3530001 	cmp	r3, #1
    ab48:	1a000003 	bne	ab5c <_ZN10Read_Utils9read_lineEPcjb+0x50>
/mnt/c/user/privateWorkspace/School/OS/SP/KIV-RTOS/Odevzdani/src/stdutils/src/read_utils.cpp:17
			wait(file, 0x1000, Indefinite);
    ab4c:	e3e02000 	mvn	r2, #0
    ab50:	e3a01a01 	mov	r1, #4096	; 0x1000
    ab54:	e51b00a0 	ldr	r0, [fp, #-160]	; 0xffffff60
    ab58:	ebfffc33 	bl	9c2c <_Z4waitjjj>
/mnt/c/user/privateWorkspace/School/OS/SP/KIV-RTOS/Odevzdani/src/stdutils/src/read_utils.cpp:20
		}

		uint32_t len = read(file, readBuffer, 128);
    ab5c:	e24b3090 	sub	r3, fp, #144	; 0x90
    ab60:	e3a02080 	mov	r2, #128	; 0x80
    ab64:	e1a01003 	mov	r1, r3
    ab68:	e51b00a0 	ldr	r0, [fp, #-160]	; 0xffffff60
    ab6c:	ebfffbd6 	bl	9acc <_Z4readjPcj>
    ab70:	e50b0010 	str	r0, [fp, #-16]
/mnt/c/user/privateWorkspace/School/OS/SP/KIV-RTOS/Odevzdani/src/stdutils/src/read_utils.cpp:21
		if (len != 0) {
    ab74:	e51b3010 	ldr	r3, [fp, #-16]
    ab78:	e3530000 	cmp	r3, #0
    ab7c:	0a00003d 	beq	ac78 <_ZN10Read_Utils9read_lineEPcjb+0x16c>
/mnt/c/user/privateWorkspace/School/OS/SP/KIV-RTOS/Odevzdani/src/stdutils/src/read_utils.cpp:28
			//Write into it's own circular buffer holding previous values.
			//This is used for example if user pastes two lines, we don't want to scrap the result.
			//Other scenario might be that user might enter for example only two characters without pressing \n - We still 
			//Want to save the results and return them on next read_line call.
			
			circular_buffer.write(readBuffer, len);
    ab80:	e51b3098 	ldr	r3, [fp, #-152]	; 0xffffff68
    ab84:	e24b1090 	sub	r1, fp, #144	; 0x90
    ab88:	e51b2010 	ldr	r2, [fp, #-16]
    ab8c:	e1a00003 	mov	r0, r3
    ab90:	eb00012f 	bl	b054 <_ZN15Circular_Buffer5writeEPcj>
/mnt/c/user/privateWorkspace/School/OS/SP/KIV-RTOS/Odevzdani/src/stdutils/src/read_utils.cpp:29
			readChars = circular_buffer.read_until('\n', returnBuffer);
    ab94:	e51b3098 	ldr	r3, [fp, #-152]	; 0xffffff68
    ab98:	e51b209c 	ldr	r2, [fp, #-156]	; 0xffffff64
    ab9c:	e3a0100a 	mov	r1, #10
    aba0:	e1a00003 	mov	r0, r3
    aba4:	eb0000f6 	bl	af84 <_ZN15Circular_Buffer10read_untilEcPc>
    aba8:	e50b0008 	str	r0, [fp, #-8]
/mnt/c/user/privateWorkspace/School/OS/SP/KIV-RTOS/Odevzdani/src/stdutils/src/read_utils.cpp:36
			//Workaround for QEMU since it only sends \r, not \n - we replace the last read char with \n - in production we still should get \r\n
			//but in QEMU, we replace the last \r with \n, thus going on new line, not only returning to the beggining of the line. If we get \n (Linux style)
			//We still should end up with only \n in the end. Possible values are then \r\n and \n.
			//
			//We also send the new line character to the UART, so we end up on correct line. In rare occassions this might cause sending two newlines.
			if (readChars == 0) {
    abac:	e51b3008 	ldr	r3, [fp, #-8]
    abb0:	e3530000 	cmp	r3, #0
    abb4:	1a000012 	bne	ac04 <_ZN10Read_Utils9read_lineEPcjb+0xf8>
/mnt/c/user/privateWorkspace/School/OS/SP/KIV-RTOS/Odevzdani/src/stdutils/src/read_utils.cpp:37
				readChars = circular_buffer.read_until('\r', returnBuffer);
    abb8:	e51b3098 	ldr	r3, [fp, #-152]	; 0xffffff68
    abbc:	e51b209c 	ldr	r2, [fp, #-156]	; 0xffffff64
    abc0:	e3a0100d 	mov	r1, #13
    abc4:	e1a00003 	mov	r0, r3
    abc8:	eb0000ed 	bl	af84 <_ZN15Circular_Buffer10read_untilEcPc>
    abcc:	e50b0008 	str	r0, [fp, #-8]
/mnt/c/user/privateWorkspace/School/OS/SP/KIV-RTOS/Odevzdani/src/stdutils/src/read_utils.cpp:39

				if (readChars != 0) {
    abd0:	e51b3008 	ldr	r3, [fp, #-8]
    abd4:	e3530000 	cmp	r3, #0
    abd8:	0a000009 	beq	ac04 <_ZN10Read_Utils9read_lineEPcjb+0xf8>
/mnt/c/user/privateWorkspace/School/OS/SP/KIV-RTOS/Odevzdani/src/stdutils/src/read_utils.cpp:40
					write(file, "\n", 1);
    abdc:	e3a02001 	mov	r2, #1
    abe0:	e59f10bc 	ldr	r1, [pc, #188]	; aca4 <_ZN10Read_Utils9read_lineEPcjb+0x198>
    abe4:	e51b00a0 	ldr	r0, [fp, #-160]	; 0xffffff60
    abe8:	ebfffbcb 	bl	9b1c <_Z5writejPKcj>
/mnt/c/user/privateWorkspace/School/OS/SP/KIV-RTOS/Odevzdani/src/stdutils/src/read_utils.cpp:41
					returnBuffer[readChars - 1] = '\n';
    abec:	e51b3008 	ldr	r3, [fp, #-8]
    abf0:	e2433001 	sub	r3, r3, #1
    abf4:	e51b209c 	ldr	r2, [fp, #-156]	; 0xffffff64
    abf8:	e0823003 	add	r3, r2, r3
    abfc:	e3a0200a 	mov	r2, #10
    ac00:	e5c32000 	strb	r2, [r3]
/mnt/c/user/privateWorkspace/School/OS/SP/KIV-RTOS/Odevzdani/src/stdutils/src/read_utils.cpp:46
				}
			}

			//Remove newLine and carriage return characters from the end of the string.
			for (int i = readChars - 1; i >= 0; i--) {
    ac04:	e51b3008 	ldr	r3, [fp, #-8]
    ac08:	e2433001 	sub	r3, r3, #1
    ac0c:	e50b300c 	str	r3, [fp, #-12]
/mnt/c/user/privateWorkspace/School/OS/SP/KIV-RTOS/Odevzdani/src/stdutils/src/read_utils.cpp:46 (discriminator 1)
    ac10:	e51b300c 	ldr	r3, [fp, #-12]
    ac14:	e3530000 	cmp	r3, #0
    ac18:	ba000016 	blt	ac78 <_ZN10Read_Utils9read_lineEPcjb+0x16c>
/mnt/c/user/privateWorkspace/School/OS/SP/KIV-RTOS/Odevzdani/src/stdutils/src/read_utils.cpp:47
				if (returnBuffer[i] == '\r' || returnBuffer[i] == '\n') {
    ac1c:	e51b300c 	ldr	r3, [fp, #-12]
    ac20:	e51b209c 	ldr	r2, [fp, #-156]	; 0xffffff64
    ac24:	e0823003 	add	r3, r2, r3
    ac28:	e5d33000 	ldrb	r3, [r3]
    ac2c:	e353000d 	cmp	r3, #13
    ac30:	0a000005 	beq	ac4c <_ZN10Read_Utils9read_lineEPcjb+0x140>
/mnt/c/user/privateWorkspace/School/OS/SP/KIV-RTOS/Odevzdani/src/stdutils/src/read_utils.cpp:47 (discriminator 2)
    ac34:	e51b300c 	ldr	r3, [fp, #-12]
    ac38:	e51b209c 	ldr	r2, [fp, #-156]	; 0xffffff64
    ac3c:	e0823003 	add	r3, r2, r3
    ac40:	e5d33000 	ldrb	r3, [r3]
    ac44:	e353000a 	cmp	r3, #10
    ac48:	1a000009 	bne	ac74 <_ZN10Read_Utils9read_lineEPcjb+0x168>
/mnt/c/user/privateWorkspace/School/OS/SP/KIV-RTOS/Odevzdani/src/stdutils/src/read_utils.cpp:48 (discriminator 3)
					returnBuffer[i] = '\0';
    ac4c:	e51b300c 	ldr	r3, [fp, #-12]
    ac50:	e51b209c 	ldr	r2, [fp, #-156]	; 0xffffff64
    ac54:	e0823003 	add	r3, r2, r3
    ac58:	e3a02000 	mov	r2, #0
    ac5c:	e5c32000 	strb	r2, [r3]
/mnt/c/user/privateWorkspace/School/OS/SP/KIV-RTOS/Odevzdani/src/stdutils/src/read_utils.cpp:49 (discriminator 3)
					continue; //Replace and continue to another character 
    ac60:	e320f000 	nop	{0}
/mnt/c/user/privateWorkspace/School/OS/SP/KIV-RTOS/Odevzdani/src/stdutils/src/read_utils.cpp:46 (discriminator 3)
			for (int i = readChars - 1; i >= 0; i--) {
    ac64:	e51b300c 	ldr	r3, [fp, #-12]
    ac68:	e2433001 	sub	r3, r3, #1
    ac6c:	e50b300c 	str	r3, [fp, #-12]
    ac70:	eaffffe6 	b	ac10 <_ZN10Read_Utils9read_lineEPcjb+0x104>
/mnt/c/user/privateWorkspace/School/OS/SP/KIV-RTOS/Odevzdani/src/stdutils/src/read_utils.cpp:52
				}

				break; //There was no newline, we suspect that there is alphanumeric characters and no new line char will be present, so we can stop the search.
    ac74:	e320f000 	nop	{0}
/mnt/c/user/privateWorkspace/School/OS/SP/KIV-RTOS/Odevzdani/src/stdutils/src/read_utils.cpp:55
			}
		}
	} while (readChars == 0 && blocking == true);
    ac78:	e51b3008 	ldr	r3, [fp, #-8]
    ac7c:	e3530000 	cmp	r3, #0
    ac80:	1a000003 	bne	ac94 <_ZN10Read_Utils9read_lineEPcjb+0x188>
/mnt/c/user/privateWorkspace/School/OS/SP/KIV-RTOS/Odevzdani/src/stdutils/src/read_utils.cpp:55 (discriminator 1)
    ac84:	e55b30a1 	ldrb	r3, [fp, #-161]	; 0xffffff5f
    ac88:	e3530001 	cmp	r3, #1
    ac8c:	1a000000 	bne	ac94 <_ZN10Read_Utils9read_lineEPcjb+0x188>
/mnt/c/user/privateWorkspace/School/OS/SP/KIV-RTOS/Odevzdani/src/stdutils/src/read_utils.cpp:15
	do {
    ac90:	eaffffaa 	b	ab40 <_ZN10Read_Utils9read_lineEPcjb+0x34>
/mnt/c/user/privateWorkspace/School/OS/SP/KIV-RTOS/Odevzdani/src/stdutils/src/read_utils.cpp:57
	
    return readChars;
    ac94:	e51b3008 	ldr	r3, [fp, #-8]
/mnt/c/user/privateWorkspace/School/OS/SP/KIV-RTOS/Odevzdani/src/stdutils/src/read_utils.cpp:58
}
    ac98:	e1a00003 	mov	r0, r3
    ac9c:	e24bd004 	sub	sp, fp, #4
    aca0:	e8bd8800 	pop	{fp, pc}
    aca4:	0000b6b0 			; <UNDEFINED> instruction: 0x0000b6b0

0000aca8 <_ZN13Rnd_Generator12generate_intEii>:
_ZN13Rnd_Generator12generate_intEii():
/mnt/c/user/privateWorkspace/School/OS/SP/KIV-RTOS/Odevzdani/src/stdutils/src/rnd_generator.cpp:6
#include <rnd_generator.h>
#include <stdfile.h>

Rnd_Generator rnd;

int Rnd_Generator::generate_int(int32_t low, int32_t high) {
    aca8:	e92d4800 	push	{fp, lr}
    acac:	e28db004 	add	fp, sp, #4
    acb0:	e24dd010 	sub	sp, sp, #16
    acb4:	e50b0008 	str	r0, [fp, #-8]
    acb8:	e50b100c 	str	r1, [fp, #-12]
    acbc:	e50b2010 	str	r2, [fp, #-16]
/mnt/c/user/privateWorkspace/School/OS/SP/KIV-RTOS/Odevzdani/src/stdutils/src/rnd_generator.cpp:7
	return generate(low, high + 1); //Add 1 to high since it wouldn't be able to get to this value if we trim the decimal part
    acc0:	e51b3010 	ldr	r3, [fp, #-16]
    acc4:	e2833001 	add	r3, r3, #1
    acc8:	e1a02003 	mov	r2, r3
    accc:	e51b100c 	ldr	r1, [fp, #-12]
    acd0:	e51b0008 	ldr	r0, [fp, #-8]
    acd4:	eb000005 	bl	acf0 <_ZN13Rnd_Generator8generateEii>
    acd8:	eef07a40 	vmov.f32	s15, s0
    acdc:	eefd7ae7 	vcvt.s32.f32	s15, s15
    ace0:	ee173a90 	vmov	r3, s15
/mnt/c/user/privateWorkspace/School/OS/SP/KIV-RTOS/Odevzdani/src/stdutils/src/rnd_generator.cpp:8
}
    ace4:	e1a00003 	mov	r0, r3
    ace8:	e24bd004 	sub	sp, fp, #4
    acec:	e8bd8800 	pop	{fp, pc}

0000acf0 <_ZN13Rnd_Generator8generateEii>:
_ZN13Rnd_Generator8generateEii():
/mnt/c/user/privateWorkspace/School/OS/SP/KIV-RTOS/Odevzdani/src/stdutils/src/rnd_generator.cpp:15
/**
 * Generates float value between low and high parameters. 
 * 
 * Generator has to be initialized using set_generator function, otherwise always returns 0.
 */
float Rnd_Generator::generate(int32_t low, int32_t high) {
    acf0:	e92d4800 	push	{fp, lr}
    acf4:	e28db004 	add	fp, sp, #4
    acf8:	e24dd020 	sub	sp, sp, #32
    acfc:	e50b0018 	str	r0, [fp, #-24]	; 0xffffffe8
    ad00:	e50b101c 	str	r1, [fp, #-28]	; 0xffffffe4
    ad04:	e50b2020 	str	r2, [fp, #-32]	; 0xffffffe0
/mnt/c/user/privateWorkspace/School/OS/SP/KIV-RTOS/Odevzdani/src/stdutils/src/rnd_generator.cpp:16
	if (rnd_file == RND_NOT_INITIALIZED) {
    ad08:	e51b3018 	ldr	r3, [fp, #-24]	; 0xffffffe8
    ad0c:	e5933000 	ldr	r3, [r3]
    ad10:	e3730001 	cmn	r3, #1
    ad14:	1a000001 	bne	ad20 <_ZN13Rnd_Generator8generateEii+0x30>
/mnt/c/user/privateWorkspace/School/OS/SP/KIV-RTOS/Odevzdani/src/stdutils/src/rnd_generator.cpp:17
		return 0;
    ad18:	e3a03000 	mov	r3, #0
    ad1c:	ea00001d 	b	ad98 <_ZN13Rnd_Generator8generateEii+0xa8>
/mnt/c/user/privateWorkspace/School/OS/SP/KIV-RTOS/Odevzdani/src/stdutils/src/rnd_generator.cpp:20
	}

	char buf[sizeof(uint32_t)] = {0};
    ad20:	e3a03000 	mov	r3, #0
    ad24:	e50b3014 	str	r3, [fp, #-20]	; 0xffffffec
/mnt/c/user/privateWorkspace/School/OS/SP/KIV-RTOS/Odevzdani/src/stdutils/src/rnd_generator.cpp:21
	read(rnd_file, buf, sizeof(uint32_t));
    ad28:	e51b3018 	ldr	r3, [fp, #-24]	; 0xffffffe8
    ad2c:	e5933000 	ldr	r3, [r3]
    ad30:	e24b1014 	sub	r1, fp, #20
    ad34:	e3a02004 	mov	r2, #4
    ad38:	e1a00003 	mov	r0, r3
    ad3c:	ebfffb62 	bl	9acc <_Z4readjPcj>
/mnt/c/user/privateWorkspace/School/OS/SP/KIV-RTOS/Odevzdani/src/stdutils/src/rnd_generator.cpp:22
	int32_t diff = high - low;
    ad40:	e51b2020 	ldr	r2, [fp, #-32]	; 0xffffffe0
    ad44:	e51b301c 	ldr	r3, [fp, #-28]	; 0xffffffe4
    ad48:	e0423003 	sub	r3, r2, r3
    ad4c:	e50b3008 	str	r3, [fp, #-8]
/mnt/c/user/privateWorkspace/School/OS/SP/KIV-RTOS/Odevzdani/src/stdutils/src/rnd_generator.cpp:24

	uint32_t rnd_value = reinterpret_cast<uint32_t*>(buf)[0];
    ad50:	e24b3014 	sub	r3, fp, #20
    ad54:	e5933000 	ldr	r3, [r3]
    ad58:	e50b300c 	str	r3, [fp, #-12]
/mnt/c/user/privateWorkspace/School/OS/SP/KIV-RTOS/Odevzdani/src/stdutils/src/rnd_generator.cpp:25
	float rnd_final = static_cast<float>(rnd_value / (static_cast<float>(UINT32_T_MAX) / diff)) + low;
    ad5c:	e51b300c 	ldr	r3, [fp, #-12]
    ad60:	ee073a90 	vmov	s15, r3
    ad64:	eef86a67 	vcvt.f32.u32	s13, s15
    ad68:	e51b3008 	ldr	r3, [fp, #-8]
    ad6c:	ee073a90 	vmov	s15, r3
    ad70:	eeb87ae7 	vcvt.f32.s32	s14, s15
    ad74:	ed9f6a0b 	vldr	s12, [pc, #44]	; ada8 <_ZN13Rnd_Generator8generateEii+0xb8>
    ad78:	eec67a07 	vdiv.f32	s15, s12, s14
    ad7c:	ee867aa7 	vdiv.f32	s14, s13, s15
    ad80:	e51b301c 	ldr	r3, [fp, #-28]	; 0xffffffe4
    ad84:	ee073a90 	vmov	s15, r3
    ad88:	eef87ae7 	vcvt.f32.s32	s15, s15
    ad8c:	ee777a27 	vadd.f32	s15, s14, s15
    ad90:	ed4b7a04 	vstr	s15, [fp, #-16]
/mnt/c/user/privateWorkspace/School/OS/SP/KIV-RTOS/Odevzdani/src/stdutils/src/rnd_generator.cpp:27

	return rnd_final;
    ad94:	e51b3010 	ldr	r3, [fp, #-16]
/mnt/c/user/privateWorkspace/School/OS/SP/KIV-RTOS/Odevzdani/src/stdutils/src/rnd_generator.cpp:28 (discriminator 1)
}
    ad98:	ee073a90 	vmov	s15, r3
    ad9c:	eeb00a67 	vmov.f32	s0, s15
    ada0:	e24bd004 	sub	sp, fp, #4
    ada4:	e8bd8800 	pop	{fp, pc}
    ada8:	4f800000 	svcmi	0x00800000

0000adac <_ZN13Rnd_Generator13set_generatorEj>:
_ZN13Rnd_Generator13set_generatorEj():
/mnt/c/user/privateWorkspace/School/OS/SP/KIV-RTOS/Odevzdani/src/stdutils/src/rnd_generator.cpp:30

void Rnd_Generator::set_generator(uint32_t file) {
    adac:	e52db004 	push	{fp}		; (str fp, [sp, #-4]!)
    adb0:	e28db000 	add	fp, sp, #0
    adb4:	e24dd00c 	sub	sp, sp, #12
    adb8:	e50b0008 	str	r0, [fp, #-8]
    adbc:	e50b100c 	str	r1, [fp, #-12]
/mnt/c/user/privateWorkspace/School/OS/SP/KIV-RTOS/Odevzdani/src/stdutils/src/rnd_generator.cpp:31
	rnd_file = file;
    adc0:	e51b3008 	ldr	r3, [fp, #-8]
    adc4:	e51b200c 	ldr	r2, [fp, #-12]
    adc8:	e5832000 	str	r2, [r3]
/mnt/c/user/privateWorkspace/School/OS/SP/KIV-RTOS/Odevzdani/src/stdutils/src/rnd_generator.cpp:32
    adcc:	e320f000 	nop	{0}
    add0:	e28bd000 	add	sp, fp, #0
    add4:	e49db004 	pop	{fp}		; (ldr fp, [sp], #4)
    add8:	e12fff1e 	bx	lr

0000addc <_ZN15Circular_BufferC1Ev>:
_ZN15Circular_BufferC2Ev():
/mnt/c/user/privateWorkspace/School/OS/SP/KIV-RTOS/Odevzdani/src/stdutils/src/circular_buffer.cpp:4
#include <circular_buffer.h>
#include <stdstring.h>

Circular_Buffer::Circular_Buffer() {
    addc:	e92d4800 	push	{fp, lr}
    ade0:	e28db004 	add	fp, sp, #4
    ade4:	e24dd008 	sub	sp, sp, #8
    ade8:	e50b0008 	str	r0, [fp, #-8]
    adec:	e51b3008 	ldr	r3, [fp, #-8]
    adf0:	e3a02000 	mov	r2, #0
    adf4:	e5832080 	str	r2, [r3, #128]	; 0x80
    adf8:	e51b3008 	ldr	r3, [fp, #-8]
    adfc:	e3a02000 	mov	r2, #0
    ae00:	e5832084 	str	r2, [r3, #132]	; 0x84
/mnt/c/user/privateWorkspace/School/OS/SP/KIV-RTOS/Odevzdani/src/stdutils/src/circular_buffer.cpp:5
    bzero(buffer, BUFFER_SIZE);
    ae04:	e51b3008 	ldr	r3, [fp, #-8]
    ae08:	e3a01080 	mov	r1, #128	; 0x80
    ae0c:	e1a00003 	mov	r0, r3
    ae10:	ebfffef8 	bl	a9f8 <_Z5bzeroPvi>
/mnt/c/user/privateWorkspace/School/OS/SP/KIV-RTOS/Odevzdani/src/stdutils/src/circular_buffer.cpp:6
};
    ae14:	e51b3008 	ldr	r3, [fp, #-8]
    ae18:	e1a00003 	mov	r0, r3
    ae1c:	e24bd004 	sub	sp, fp, #4
    ae20:	e8bd8800 	pop	{fp, pc}

0000ae24 <_ZN15Circular_Buffer4readEPc>:
_ZN15Circular_Buffer4readEPc():
/mnt/c/user/privateWorkspace/School/OS/SP/KIV-RTOS/Odevzdani/src/stdutils/src/circular_buffer.cpp:11

/* TODO: Vyresit tady nejak try_spinlock_lock. Mozna predat spinlock z UARTu, ktery muze UART driver zavrit externe nez spusti read. */

//Precte vsechna dostupna data, vrati pocet prectenych znaku.
uint32_t Circular_Buffer::read(char * returnBuffer) {
    ae24:	e92d4800 	push	{fp, lr}
    ae28:	e28db004 	add	fp, sp, #4
    ae2c:	e24dd008 	sub	sp, sp, #8
    ae30:	e50b0008 	str	r0, [fp, #-8]
    ae34:	e50b100c 	str	r1, [fp, #-12]
/mnt/c/user/privateWorkspace/School/OS/SP/KIV-RTOS/Odevzdani/src/stdutils/src/circular_buffer.cpp:12
    return read(returnBuffer, writeIndex - readIndex); //Precti rozdil mezi indexem pro cteni a zapis -> vsechno
    ae38:	e51b3008 	ldr	r3, [fp, #-8]
    ae3c:	e5932084 	ldr	r2, [r3, #132]	; 0x84
    ae40:	e51b3008 	ldr	r3, [fp, #-8]
    ae44:	e5933080 	ldr	r3, [r3, #128]	; 0x80
    ae48:	e0423003 	sub	r3, r2, r3
    ae4c:	e1a02003 	mov	r2, r3
    ae50:	e51b100c 	ldr	r1, [fp, #-12]
    ae54:	e51b0008 	ldr	r0, [fp, #-8]
    ae58:	eb000003 	bl	ae6c <_ZN15Circular_Buffer4readEPcj>
    ae5c:	e1a03000 	mov	r3, r0
/mnt/c/user/privateWorkspace/School/OS/SP/KIV-RTOS/Odevzdani/src/stdutils/src/circular_buffer.cpp:13
}
    ae60:	e1a00003 	mov	r0, r3
    ae64:	e24bd004 	sub	sp, fp, #4
    ae68:	e8bd8800 	pop	{fp, pc}

0000ae6c <_ZN15Circular_Buffer4readEPcj>:
_ZN15Circular_Buffer4readEPcj():
/mnt/c/user/privateWorkspace/School/OS/SP/KIV-RTOS/Odevzdani/src/stdutils/src/circular_buffer.cpp:16

//Precte zadany pocet znaku, vrati realny pocet prectenych znaku.
uint32_t Circular_Buffer::read(char * returnBuffer, uint32_t len) {
    ae6c:	e52db004 	push	{fp}		; (str fp, [sp, #-4]!)
    ae70:	e28db000 	add	fp, sp, #0
    ae74:	e24dd024 	sub	sp, sp, #36	; 0x24
    ae78:	e50b0018 	str	r0, [fp, #-24]	; 0xffffffe8
    ae7c:	e50b101c 	str	r1, [fp, #-28]	; 0xffffffe4
    ae80:	e50b2020 	str	r2, [fp, #-32]	; 0xffffffe0
/mnt/c/user/privateWorkspace/School/OS/SP/KIV-RTOS/Odevzdani/src/stdutils/src/circular_buffer.cpp:17
    int readChars = 0;
    ae84:	e3a03000 	mov	r3, #0
    ae88:	e50b3008 	str	r3, [fp, #-8]
/mnt/c/user/privateWorkspace/School/OS/SP/KIV-RTOS/Odevzdani/src/stdutils/src/circular_buffer.cpp:21

    //Drop the values that are inaccessible - They have already been written over by something else
    //Increment value of BUFFER_SIZE to readIndex since we have usigned value and we cannot subtract in the start of program.
    if(readIndex + BUFFER_SIZE < writeIndex) {
    ae8c:	e51b3018 	ldr	r3, [fp, #-24]	; 0xffffffe8
    ae90:	e5933080 	ldr	r3, [r3, #128]	; 0x80
    ae94:	e2832080 	add	r2, r3, #128	; 0x80
    ae98:	e51b3018 	ldr	r3, [fp, #-24]	; 0xffffffe8
    ae9c:	e5933084 	ldr	r3, [r3, #132]	; 0x84
    aea0:	e1520003 	cmp	r2, r3
    aea4:	2a000004 	bcs	aebc <_ZN15Circular_Buffer4readEPcj+0x50>
/mnt/c/user/privateWorkspace/School/OS/SP/KIV-RTOS/Odevzdani/src/stdutils/src/circular_buffer.cpp:22
        readIndex = writeIndex - BUFFER_SIZE + 1;
    aea8:	e51b3018 	ldr	r3, [fp, #-24]	; 0xffffffe8
    aeac:	e5933084 	ldr	r3, [r3, #132]	; 0x84
    aeb0:	e243207f 	sub	r2, r3, #127	; 0x7f
    aeb4:	e51b3018 	ldr	r3, [fp, #-24]	; 0xffffffe8
    aeb8:	e5832080 	str	r2, [r3, #128]	; 0x80
/mnt/c/user/privateWorkspace/School/OS/SP/KIV-RTOS/Odevzdani/src/stdutils/src/circular_buffer.cpp:25
    }

    uint32_t maxLen = writeIndex - readIndex;
    aebc:	e51b3018 	ldr	r3, [fp, #-24]	; 0xffffffe8
    aec0:	e5932084 	ldr	r2, [r3, #132]	; 0x84
    aec4:	e51b3018 	ldr	r3, [fp, #-24]	; 0xffffffe8
    aec8:	e5933080 	ldr	r3, [r3, #128]	; 0x80
    aecc:	e0423003 	sub	r3, r2, r3
    aed0:	e50b3010 	str	r3, [fp, #-16]
/mnt/c/user/privateWorkspace/School/OS/SP/KIV-RTOS/Odevzdani/src/stdutils/src/circular_buffer.cpp:27

    if (maxLen < len) {
    aed4:	e51b2010 	ldr	r2, [fp, #-16]
    aed8:	e51b3020 	ldr	r3, [fp, #-32]	; 0xffffffe0
    aedc:	e1520003 	cmp	r2, r3
    aee0:	2a000001 	bcs	aeec <_ZN15Circular_Buffer4readEPcj+0x80>
/mnt/c/user/privateWorkspace/School/OS/SP/KIV-RTOS/Odevzdani/src/stdutils/src/circular_buffer.cpp:28
        len = maxLen;
    aee4:	e51b3010 	ldr	r3, [fp, #-16]
    aee8:	e50b3020 	str	r3, [fp, #-32]	; 0xffffffe0
/mnt/c/user/privateWorkspace/School/OS/SP/KIV-RTOS/Odevzdani/src/stdutils/src/circular_buffer.cpp:31
    }

    for (int i = 0; i < len; i++) {
    aeec:	e3a03000 	mov	r3, #0
    aef0:	e50b300c 	str	r3, [fp, #-12]
/mnt/c/user/privateWorkspace/School/OS/SP/KIV-RTOS/Odevzdani/src/stdutils/src/circular_buffer.cpp:31 (discriminator 3)
    aef4:	e51b300c 	ldr	r3, [fp, #-12]
    aef8:	e51b2020 	ldr	r2, [fp, #-32]	; 0xffffffe0
    aefc:	e1520003 	cmp	r2, r3
    af00:	9a00001a 	bls	af70 <_ZN15Circular_Buffer4readEPcj+0x104>
/mnt/c/user/privateWorkspace/School/OS/SP/KIV-RTOS/Odevzdani/src/stdutils/src/circular_buffer.cpp:32 (discriminator 2)
        returnBuffer[readChars] = buffer[readIndex % BUFFER_SIZE];
    af04:	e51b3018 	ldr	r3, [fp, #-24]	; 0xffffffe8
    af08:	e5933080 	ldr	r3, [r3, #128]	; 0x80
    af0c:	e203207f 	and	r2, r3, #127	; 0x7f
    af10:	e51b3008 	ldr	r3, [fp, #-8]
    af14:	e51b101c 	ldr	r1, [fp, #-28]	; 0xffffffe4
    af18:	e0813003 	add	r3, r1, r3
    af1c:	e51b1018 	ldr	r1, [fp, #-24]	; 0xffffffe8
    af20:	e7d12002 	ldrb	r2, [r1, r2]
    af24:	e5c32000 	strb	r2, [r3]
/mnt/c/user/privateWorkspace/School/OS/SP/KIV-RTOS/Odevzdani/src/stdutils/src/circular_buffer.cpp:33 (discriminator 2)
        buffer[readIndex % BUFFER_SIZE] = '\0'; //Remove the value from the buffer
    af28:	e51b3018 	ldr	r3, [fp, #-24]	; 0xffffffe8
    af2c:	e5933080 	ldr	r3, [r3, #128]	; 0x80
    af30:	e203307f 	and	r3, r3, #127	; 0x7f
    af34:	e51b2018 	ldr	r2, [fp, #-24]	; 0xffffffe8
    af38:	e3a01000 	mov	r1, #0
    af3c:	e7c21003 	strb	r1, [r2, r3]
/mnt/c/user/privateWorkspace/School/OS/SP/KIV-RTOS/Odevzdani/src/stdutils/src/circular_buffer.cpp:35 (discriminator 2)

        readChars++; //Increment counter to return
    af40:	e51b3008 	ldr	r3, [fp, #-8]
    af44:	e2833001 	add	r3, r3, #1
    af48:	e50b3008 	str	r3, [fp, #-8]
/mnt/c/user/privateWorkspace/School/OS/SP/KIV-RTOS/Odevzdani/src/stdutils/src/circular_buffer.cpp:36 (discriminator 2)
        readIndex++; //Increment readIndex
    af4c:	e51b3018 	ldr	r3, [fp, #-24]	; 0xffffffe8
    af50:	e5933080 	ldr	r3, [r3, #128]	; 0x80
    af54:	e2832001 	add	r2, r3, #1
    af58:	e51b3018 	ldr	r3, [fp, #-24]	; 0xffffffe8
    af5c:	e5832080 	str	r2, [r3, #128]	; 0x80
/mnt/c/user/privateWorkspace/School/OS/SP/KIV-RTOS/Odevzdani/src/stdutils/src/circular_buffer.cpp:31 (discriminator 2)
    for (int i = 0; i < len; i++) {
    af60:	e51b300c 	ldr	r3, [fp, #-12]
    af64:	e2833001 	add	r3, r3, #1
    af68:	e50b300c 	str	r3, [fp, #-12]
    af6c:	eaffffe0 	b	aef4 <_ZN15Circular_Buffer4readEPcj+0x88>
/mnt/c/user/privateWorkspace/School/OS/SP/KIV-RTOS/Odevzdani/src/stdutils/src/circular_buffer.cpp:39
    }

    return readChars;
    af70:	e51b3008 	ldr	r3, [fp, #-8]
/mnt/c/user/privateWorkspace/School/OS/SP/KIV-RTOS/Odevzdani/src/stdutils/src/circular_buffer.cpp:40
}
    af74:	e1a00003 	mov	r0, r3
    af78:	e28bd000 	add	sp, fp, #0
    af7c:	e49db004 	pop	{fp}		; (ldr fp, [sp], #4)
    af80:	e12fff1e 	bx	lr

0000af84 <_ZN15Circular_Buffer10read_untilEcPc>:
_ZN15Circular_Buffer10read_untilEcPc():
/mnt/c/user/privateWorkspace/School/OS/SP/KIV-RTOS/Odevzdani/src/stdutils/src/circular_buffer.cpp:43

//Precte data dokud nenalezene znak v parametru. Pokud v bufferu tento znak neni, vlozi retezec zpet do bufferu a vrati hodnotu 0.
uint32_t Circular_Buffer::read_until(char stop, char* returnBuffer) {
    af84:	e92d4800 	push	{fp, lr}
    af88:	e28db004 	add	fp, sp, #4
    af8c:	e24dd018 	sub	sp, sp, #24
    af90:	e50b0010 	str	r0, [fp, #-16]
    af94:	e1a03001 	mov	r3, r1
    af98:	e50b2018 	str	r2, [fp, #-24]	; 0xffffffe8
    af9c:	e54b3011 	strb	r3, [fp, #-17]	; 0xffffffef
/mnt/c/user/privateWorkspace/School/OS/SP/KIV-RTOS/Odevzdani/src/stdutils/src/circular_buffer.cpp:46
    int readTempIndex;

    for (readTempIndex = readIndex; readTempIndex < writeIndex; readTempIndex++) {
    afa0:	e51b3010 	ldr	r3, [fp, #-16]
    afa4:	e5933080 	ldr	r3, [r3, #128]	; 0x80
    afa8:	e50b3008 	str	r3, [fp, #-8]
/mnt/c/user/privateWorkspace/School/OS/SP/KIV-RTOS/Odevzdani/src/stdutils/src/circular_buffer.cpp:46 (discriminator 1)
    afac:	e51b3010 	ldr	r3, [fp, #-16]
    afb0:	e5932084 	ldr	r2, [r3, #132]	; 0x84
    afb4:	e51b3008 	ldr	r3, [fp, #-8]
    afb8:	e1520003 	cmp	r2, r3
    afbc:	9a000016 	bls	b01c <_ZN15Circular_Buffer10read_untilEcPc+0x98>
/mnt/c/user/privateWorkspace/School/OS/SP/KIV-RTOS/Odevzdani/src/stdutils/src/circular_buffer.cpp:47
        if (buffer[readTempIndex % BUFFER_SIZE] == stop) {
    afc0:	e51b3008 	ldr	r3, [fp, #-8]
    afc4:	e2732000 	rsbs	r2, r3, #0
    afc8:	e203307f 	and	r3, r3, #127	; 0x7f
    afcc:	e202207f 	and	r2, r2, #127	; 0x7f
    afd0:	52623000 	rsbpl	r3, r2, #0
    afd4:	e51b2010 	ldr	r2, [fp, #-16]
    afd8:	e7d23003 	ldrb	r3, [r2, r3]
    afdc:	e55b2011 	ldrb	r2, [fp, #-17]	; 0xffffffef
    afe0:	e1520003 	cmp	r2, r3
    afe4:	0a00000b 	beq	b018 <_ZN15Circular_Buffer10read_untilEcPc+0x94>
/mnt/c/user/privateWorkspace/School/OS/SP/KIV-RTOS/Odevzdani/src/stdutils/src/circular_buffer.cpp:52
            break;
        }

        //Pokud jsem doted nenasel ten znak, tak vratim nulu a neresim buffer
        if (readTempIndex == writeIndex - 1) {
    afe8:	e51b3010 	ldr	r3, [fp, #-16]
    afec:	e5933084 	ldr	r3, [r3, #132]	; 0x84
    aff0:	e2432001 	sub	r2, r3, #1
    aff4:	e51b3008 	ldr	r3, [fp, #-8]
    aff8:	e1520003 	cmp	r2, r3
    affc:	1a000001 	bne	b008 <_ZN15Circular_Buffer10read_untilEcPc+0x84>
/mnt/c/user/privateWorkspace/School/OS/SP/KIV-RTOS/Odevzdani/src/stdutils/src/circular_buffer.cpp:53
            return 0;
    b000:	e3a03000 	mov	r3, #0
    b004:	ea00000f 	b	b048 <_ZN15Circular_Buffer10read_untilEcPc+0xc4>
/mnt/c/user/privateWorkspace/School/OS/SP/KIV-RTOS/Odevzdani/src/stdutils/src/circular_buffer.cpp:46 (discriminator 2)
    for (readTempIndex = readIndex; readTempIndex < writeIndex; readTempIndex++) {
    b008:	e51b3008 	ldr	r3, [fp, #-8]
    b00c:	e2833001 	add	r3, r3, #1
    b010:	e50b3008 	str	r3, [fp, #-8]
    b014:	eaffffe4 	b	afac <_ZN15Circular_Buffer10read_untilEcPc+0x28>
/mnt/c/user/privateWorkspace/School/OS/SP/KIV-RTOS/Odevzdani/src/stdutils/src/circular_buffer.cpp:48
            break;
    b018:	e320f000 	nop	{0}
/mnt/c/user/privateWorkspace/School/OS/SP/KIV-RTOS/Odevzdani/src/stdutils/src/circular_buffer.cpp:58
        }
    }

    //V promenne readTempIndex mam hodnotu, kde se zrovna nachazi
    return read(returnBuffer, readTempIndex - readIndex + 1); //Read one more char - if we have asd\n, then \n is readTempIndex 3 - readIndex 0 = 3 - but we want 4 letters
    b01c:	e51b2008 	ldr	r2, [fp, #-8]
    b020:	e51b3010 	ldr	r3, [fp, #-16]
    b024:	e5933080 	ldr	r3, [r3, #128]	; 0x80
    b028:	e0423003 	sub	r3, r2, r3
    b02c:	e2833001 	add	r3, r3, #1
    b030:	e1a02003 	mov	r2, r3
    b034:	e51b1018 	ldr	r1, [fp, #-24]	; 0xffffffe8
    b038:	e51b0010 	ldr	r0, [fp, #-16]
    b03c:	ebffff8a 	bl	ae6c <_ZN15Circular_Buffer4readEPcj>
    b040:	e1a03000 	mov	r3, r0
    b044:	e320f000 	nop	{0}
/mnt/c/user/privateWorkspace/School/OS/SP/KIV-RTOS/Odevzdani/src/stdutils/src/circular_buffer.cpp:59
}
    b048:	e1a00003 	mov	r0, r3
    b04c:	e24bd004 	sub	sp, fp, #4
    b050:	e8bd8800 	pop	{fp, pc}

0000b054 <_ZN15Circular_Buffer5writeEPcj>:
_ZN15Circular_Buffer5writeEPcj():
/mnt/c/user/privateWorkspace/School/OS/SP/KIV-RTOS/Odevzdani/src/stdutils/src/circular_buffer.cpp:62

// Vlozi vice znaku do bufferu
void Circular_Buffer::write(char* input, uint32_t len) {
    b054:	e92d4800 	push	{fp, lr}
    b058:	e28db004 	add	fp, sp, #4
    b05c:	e24dd018 	sub	sp, sp, #24
    b060:	e50b0010 	str	r0, [fp, #-16]
    b064:	e50b1014 	str	r1, [fp, #-20]	; 0xffffffec
    b068:	e50b2018 	str	r2, [fp, #-24]	; 0xffffffe8
/mnt/c/user/privateWorkspace/School/OS/SP/KIV-RTOS/Odevzdani/src/stdutils/src/circular_buffer.cpp:63
    for (int i = 0; i < len; i++) {
    b06c:	e3a03000 	mov	r3, #0
    b070:	e50b3008 	str	r3, [fp, #-8]
/mnt/c/user/privateWorkspace/School/OS/SP/KIV-RTOS/Odevzdani/src/stdutils/src/circular_buffer.cpp:63 (discriminator 3)
    b074:	e51b3008 	ldr	r3, [fp, #-8]
    b078:	e51b2018 	ldr	r2, [fp, #-24]	; 0xffffffe8
    b07c:	e1520003 	cmp	r2, r3
    b080:	9a00000a 	bls	b0b0 <_ZN15Circular_Buffer5writeEPcj+0x5c>
/mnt/c/user/privateWorkspace/School/OS/SP/KIV-RTOS/Odevzdani/src/stdutils/src/circular_buffer.cpp:64 (discriminator 2)
        write(input[i]);
    b084:	e51b3008 	ldr	r3, [fp, #-8]
    b088:	e51b2014 	ldr	r2, [fp, #-20]	; 0xffffffec
    b08c:	e0823003 	add	r3, r2, r3
    b090:	e5d33000 	ldrb	r3, [r3]
    b094:	e1a01003 	mov	r1, r3
    b098:	e51b0010 	ldr	r0, [fp, #-16]
    b09c:	eb000006 	bl	b0bc <_ZN15Circular_Buffer5writeEc>
/mnt/c/user/privateWorkspace/School/OS/SP/KIV-RTOS/Odevzdani/src/stdutils/src/circular_buffer.cpp:63 (discriminator 2)
    for (int i = 0; i < len; i++) {
    b0a0:	e51b3008 	ldr	r3, [fp, #-8]
    b0a4:	e2833001 	add	r3, r3, #1
    b0a8:	e50b3008 	str	r3, [fp, #-8]
    b0ac:	eafffff0 	b	b074 <_ZN15Circular_Buffer5writeEPcj+0x20>
/mnt/c/user/privateWorkspace/School/OS/SP/KIV-RTOS/Odevzdani/src/stdutils/src/circular_buffer.cpp:66
    }
}
    b0b0:	e320f000 	nop	{0}
    b0b4:	e24bd004 	sub	sp, fp, #4
    b0b8:	e8bd8800 	pop	{fp, pc}

0000b0bc <_ZN15Circular_Buffer5writeEc>:
_ZN15Circular_Buffer5writeEc():
/mnt/c/user/privateWorkspace/School/OS/SP/KIV-RTOS/Odevzdani/src/stdutils/src/circular_buffer.cpp:69

// Vlozi jeden znak do bufferu
void Circular_Buffer::write(char input) {
    b0bc:	e52db004 	push	{fp}		; (str fp, [sp, #-4]!)
    b0c0:	e28db000 	add	fp, sp, #0
    b0c4:	e24dd00c 	sub	sp, sp, #12
    b0c8:	e50b0008 	str	r0, [fp, #-8]
    b0cc:	e1a03001 	mov	r3, r1
    b0d0:	e54b3009 	strb	r3, [fp, #-9]
/mnt/c/user/privateWorkspace/School/OS/SP/KIV-RTOS/Odevzdani/src/stdutils/src/circular_buffer.cpp:70
    buffer[writeIndex % BUFFER_SIZE] = input;
    b0d4:	e51b3008 	ldr	r3, [fp, #-8]
    b0d8:	e5933084 	ldr	r3, [r3, #132]	; 0x84
    b0dc:	e203307f 	and	r3, r3, #127	; 0x7f
    b0e0:	e51b2008 	ldr	r2, [fp, #-8]
    b0e4:	e55b1009 	ldrb	r1, [fp, #-9]
    b0e8:	e7c21003 	strb	r1, [r2, r3]
/mnt/c/user/privateWorkspace/School/OS/SP/KIV-RTOS/Odevzdani/src/stdutils/src/circular_buffer.cpp:71
    writeIndex++;
    b0ec:	e51b3008 	ldr	r3, [fp, #-8]
    b0f0:	e5933084 	ldr	r3, [r3, #132]	; 0x84
    b0f4:	e2832001 	add	r2, r3, #1
    b0f8:	e51b3008 	ldr	r3, [fp, #-8]
    b0fc:	e5832084 	str	r2, [r3, #132]	; 0x84
/mnt/c/user/privateWorkspace/School/OS/SP/KIV-RTOS/Odevzdani/src/stdutils/src/circular_buffer.cpp:72
    b100:	e320f000 	nop	{0}
    b104:	e28bd000 	add	sp, fp, #0
    b108:	e49db004 	pop	{fp}		; (ldr fp, [sp], #4)
    b10c:	e12fff1e 	bx	lr

0000b110 <__udivsi3>:
__udivsi3():
    b110:	e2512001 	subs	r2, r1, #1
    b114:	012fff1e 	bxeq	lr
    b118:	3a000023 	bcc	b1ac <__udivsi3+0x9c>
    b11c:	e1500001 	cmp	r0, r1
    b120:	9a00001a 	bls	b190 <__udivsi3+0x80>
    b124:	e1110002 	tst	r1, r2
    b128:	0a00001b 	beq	b19c <__udivsi3+0x8c>
    b12c:	e16f3f11 	clz	r3, r1
    b130:	e16f2f10 	clz	r2, r0
    b134:	e0432002 	sub	r2, r3, r2
    b138:	e3a03001 	mov	r3, #1
    b13c:	e1a01211 	lsl	r1, r1, r2
    b140:	e1a03213 	lsl	r3, r3, r2
    b144:	e3a02000 	mov	r2, #0
    b148:	e1500001 	cmp	r0, r1
    b14c:	20400001 	subcs	r0, r0, r1
    b150:	21822003 	orrcs	r2, r2, r3
    b154:	e15000a1 	cmp	r0, r1, lsr #1
    b158:	204000a1 	subcs	r0, r0, r1, lsr #1
    b15c:	218220a3 	orrcs	r2, r2, r3, lsr #1
    b160:	e1500121 	cmp	r0, r1, lsr #2
    b164:	20400121 	subcs	r0, r0, r1, lsr #2
    b168:	21822123 	orrcs	r2, r2, r3, lsr #2
    b16c:	e15001a1 	cmp	r0, r1, lsr #3
    b170:	204001a1 	subcs	r0, r0, r1, lsr #3
    b174:	218221a3 	orrcs	r2, r2, r3, lsr #3
    b178:	e3500000 	cmp	r0, #0
    b17c:	11b03223 	lsrsne	r3, r3, #4
    b180:	11a01221 	lsrne	r1, r1, #4
    b184:	1affffef 	bne	b148 <__udivsi3+0x38>
    b188:	e1a00002 	mov	r0, r2
    b18c:	e12fff1e 	bx	lr
    b190:	03a00001 	moveq	r0, #1
    b194:	13a00000 	movne	r0, #0
    b198:	e12fff1e 	bx	lr
    b19c:	e16f2f11 	clz	r2, r1
    b1a0:	e262201f 	rsb	r2, r2, #31
    b1a4:	e1a00230 	lsr	r0, r0, r2
    b1a8:	e12fff1e 	bx	lr
    b1ac:	e3500000 	cmp	r0, #0
    b1b0:	13e00000 	mvnne	r0, #0
    b1b4:	ea000046 	b	b2d4 <__aeabi_idiv0>

0000b1b8 <__aeabi_uidivmod>:
__aeabi_uidivmod():
    b1b8:	e3510000 	cmp	r1, #0
    b1bc:	0afffffa 	beq	b1ac <__udivsi3+0x9c>
    b1c0:	e92d4003 	push	{r0, r1, lr}
    b1c4:	ebffffd1 	bl	b110 <__udivsi3>
    b1c8:	e8bd4006 	pop	{r1, r2, lr}
    b1cc:	e0030092 	mul	r3, r2, r0
    b1d0:	e0411003 	sub	r1, r1, r3
    b1d4:	e12fff1e 	bx	lr

0000b1d8 <__divsi3>:
__divsi3():
    b1d8:	e3510000 	cmp	r1, #0
    b1dc:	0a000030 	beq	b2a4 <.divsi3_skip_div0_test+0xc4>

0000b1e0 <.divsi3_skip_div0_test>:
    b1e0:	e020c001 	eor	ip, r0, r1
    b1e4:	42611000 	rsbmi	r1, r1, #0
    b1e8:	e2512001 	subs	r2, r1, #1
    b1ec:	0a00001f 	beq	b270 <.divsi3_skip_div0_test+0x90>
    b1f0:	e1b03000 	movs	r3, r0
    b1f4:	42603000 	rsbmi	r3, r0, #0
    b1f8:	e1530001 	cmp	r3, r1
    b1fc:	9a00001e 	bls	b27c <.divsi3_skip_div0_test+0x9c>
    b200:	e1110002 	tst	r1, r2
    b204:	0a000020 	beq	b28c <.divsi3_skip_div0_test+0xac>
    b208:	e16f2f11 	clz	r2, r1
    b20c:	e16f0f13 	clz	r0, r3
    b210:	e0420000 	sub	r0, r2, r0
    b214:	e3a02001 	mov	r2, #1
    b218:	e1a01011 	lsl	r1, r1, r0
    b21c:	e1a02012 	lsl	r2, r2, r0
    b220:	e3a00000 	mov	r0, #0
    b224:	e1530001 	cmp	r3, r1
    b228:	20433001 	subcs	r3, r3, r1
    b22c:	21800002 	orrcs	r0, r0, r2
    b230:	e15300a1 	cmp	r3, r1, lsr #1
    b234:	204330a1 	subcs	r3, r3, r1, lsr #1
    b238:	218000a2 	orrcs	r0, r0, r2, lsr #1
    b23c:	e1530121 	cmp	r3, r1, lsr #2
    b240:	20433121 	subcs	r3, r3, r1, lsr #2
    b244:	21800122 	orrcs	r0, r0, r2, lsr #2
    b248:	e15301a1 	cmp	r3, r1, lsr #3
    b24c:	204331a1 	subcs	r3, r3, r1, lsr #3
    b250:	218001a2 	orrcs	r0, r0, r2, lsr #3
    b254:	e3530000 	cmp	r3, #0
    b258:	11b02222 	lsrsne	r2, r2, #4
    b25c:	11a01221 	lsrne	r1, r1, #4
    b260:	1affffef 	bne	b224 <.divsi3_skip_div0_test+0x44>
    b264:	e35c0000 	cmp	ip, #0
    b268:	42600000 	rsbmi	r0, r0, #0
    b26c:	e12fff1e 	bx	lr
    b270:	e13c0000 	teq	ip, r0
    b274:	42600000 	rsbmi	r0, r0, #0
    b278:	e12fff1e 	bx	lr
    b27c:	33a00000 	movcc	r0, #0
    b280:	01a00fcc 	asreq	r0, ip, #31
    b284:	03800001 	orreq	r0, r0, #1
    b288:	e12fff1e 	bx	lr
    b28c:	e16f2f11 	clz	r2, r1
    b290:	e262201f 	rsb	r2, r2, #31
    b294:	e35c0000 	cmp	ip, #0
    b298:	e1a00233 	lsr	r0, r3, r2
    b29c:	42600000 	rsbmi	r0, r0, #0
    b2a0:	e12fff1e 	bx	lr
    b2a4:	e3500000 	cmp	r0, #0
    b2a8:	c3e00102 	mvngt	r0, #-2147483648	; 0x80000000
    b2ac:	b3a00102 	movlt	r0, #-2147483648	; 0x80000000
    b2b0:	ea000007 	b	b2d4 <__aeabi_idiv0>

0000b2b4 <__aeabi_idivmod>:
__aeabi_idivmod():
    b2b4:	e3510000 	cmp	r1, #0
    b2b8:	0afffff9 	beq	b2a4 <.divsi3_skip_div0_test+0xc4>
    b2bc:	e92d4003 	push	{r0, r1, lr}
    b2c0:	ebffffc6 	bl	b1e0 <.divsi3_skip_div0_test>
    b2c4:	e8bd4006 	pop	{r1, r2, lr}
    b2c8:	e0030092 	mul	r3, r2, r0
    b2cc:	e0411003 	sub	r1, r1, r3
    b2d0:	e12fff1e 	bx	lr

0000b2d4 <__aeabi_idiv0>:
__aeabi_ldiv0():
    b2d4:	e12fff1e 	bx	lr

0000b2d8 <memcpy>:
memcpy():
/home/buildozer/aports/community/newlib/src/newlib-4.1.0/newlib/libc/machine/arm/../../string/memcpy.c:73
    b2d8:	e352000f 	cmp	r2, #15
    b2dc:	9a000035 	bls	b3b8 <memcpy+0xe0>
/home/buildozer/aports/community/newlib/src/newlib-4.1.0/newlib/libc/machine/arm/../../string/memcpy.c:73 (discriminator 1)
    b2e0:	e1803001 	orr	r3, r0, r1
    b2e4:	e3130003 	tst	r3, #3
    b2e8:	1a00003e 	bne	b3e8 <memcpy+0x110>
    b2ec:	e242c010 	sub	ip, r2, #16
/home/buildozer/aports/community/newlib/src/newlib-4.1.0/newlib/libc/machine/arm/../../string/memcpy.c:52
    b2f0:	e92d40f0 	push	{r4, r5, r6, r7, lr}
    b2f4:	e3cc300f 	bic	r3, ip, #15
    b2f8:	e2814020 	add	r4, r1, #32
    b2fc:	e0844003 	add	r4, r4, r3
    b300:	e2815010 	add	r5, r1, #16
    b304:	e2806010 	add	r6, r0, #16
    b308:	e1a0322c 	lsr	r3, ip, #4
/home/buildozer/aports/community/newlib/src/newlib-4.1.0/newlib/libc/machine/arm/../../string/memcpy.c:82
    b30c:	e515e00c 	ldr	lr, [r5, #-12]
/home/buildozer/aports/community/newlib/src/newlib-4.1.0/newlib/libc/machine/arm/../../string/memcpy.c:83
    b310:	e515c008 	ldr	ip, [r5, #-8]
/home/buildozer/aports/community/newlib/src/newlib-4.1.0/newlib/libc/machine/arm/../../string/memcpy.c:81
    b314:	e5157010 	ldr	r7, [r5, #-16]
/home/buildozer/aports/community/newlib/src/newlib-4.1.0/newlib/libc/machine/arm/../../string/memcpy.c:82
    b318:	e506e00c 	str	lr, [r6, #-12]
/home/buildozer/aports/community/newlib/src/newlib-4.1.0/newlib/libc/machine/arm/../../string/memcpy.c:79
    b31c:	e2855010 	add	r5, r5, #16
/home/buildozer/aports/community/newlib/src/newlib-4.1.0/newlib/libc/machine/arm/../../string/memcpy.c:84
    b320:	e515e014 	ldr	lr, [r5, #-20]	; 0xffffffec
/home/buildozer/aports/community/newlib/src/newlib-4.1.0/newlib/libc/machine/arm/../../string/memcpy.c:79
    b324:	e1550004 	cmp	r5, r4
/home/buildozer/aports/community/newlib/src/newlib-4.1.0/newlib/libc/machine/arm/../../string/memcpy.c:81
    b328:	e5067010 	str	r7, [r6, #-16]
/home/buildozer/aports/community/newlib/src/newlib-4.1.0/newlib/libc/machine/arm/../../string/memcpy.c:84
    b32c:	e9065000 	stmdb	r6, {ip, lr}
/home/buildozer/aports/community/newlib/src/newlib-4.1.0/newlib/libc/machine/arm/../../string/memcpy.c:79
    b330:	e2866010 	add	r6, r6, #16
    b334:	1afffff4 	bne	b30c <memcpy+0x34>
    b338:	e283c001 	add	ip, r3, #1
/home/buildozer/aports/community/newlib/src/newlib-4.1.0/newlib/libc/machine/arm/../../string/memcpy.c:89
    b33c:	e312000c 	tst	r2, #12
/home/buildozer/aports/community/newlib/src/newlib-4.1.0/newlib/libc/machine/arm/../../string/memcpy.c:85
    b340:	e202300f 	and	r3, r2, #15
/home/buildozer/aports/community/newlib/src/newlib-4.1.0/newlib/libc/machine/arm/../../string/memcpy.c:84
    b344:	e081120c 	add	r1, r1, ip, lsl #4
/home/buildozer/aports/community/newlib/src/newlib-4.1.0/newlib/libc/machine/arm/../../string/memcpy.c:89
    b348:	01a02003 	moveq	r2, r3
/home/buildozer/aports/community/newlib/src/newlib-4.1.0/newlib/libc/machine/arm/../../string/memcpy.c:84
    b34c:	e080c20c 	add	ip, r0, ip, lsl #4
/home/buildozer/aports/community/newlib/src/newlib-4.1.0/newlib/libc/machine/arm/../../string/memcpy.c:89
    b350:	0a00000d 	beq	b38c <memcpy+0xb4>
    b354:	e2433004 	sub	r3, r3, #4
    b358:	e3c36003 	bic	r6, r3, #3
    b35c:	e1a0e123 	lsr	lr, r3, #2
    b360:	e08c6006 	add	r6, ip, r6
    b364:	e24c3004 	sub	r3, ip, #4
/home/buildozer/aports/community/newlib/src/newlib-4.1.0/newlib/libc/machine/arm/../../string/memcpy.c:84
    b368:	e1a04001 	mov	r4, r1
/home/buildozer/aports/community/newlib/src/newlib-4.1.0/newlib/libc/machine/arm/../../string/memcpy.c:91
    b36c:	e4945004 	ldr	r5, [r4], #4
    b370:	e5a35004 	str	r5, [r3, #4]!
/home/buildozer/aports/community/newlib/src/newlib-4.1.0/newlib/libc/machine/arm/../../string/memcpy.c:89
    b374:	e1530006 	cmp	r3, r6
    b378:	1afffffb 	bne	b36c <memcpy+0x94>
    b37c:	e28e3001 	add	r3, lr, #1
/home/buildozer/aports/community/newlib/src/newlib-4.1.0/newlib/libc/machine/arm/../../string/memcpy.c:92
    b380:	e2022003 	and	r2, r2, #3
/home/buildozer/aports/community/newlib/src/newlib-4.1.0/newlib/libc/machine/arm/../../string/memcpy.c:91
    b384:	e08cc103 	add	ip, ip, r3, lsl #2
    b388:	e0811103 	add	r1, r1, r3, lsl #2
